
_cmd:     file format elf32-i386


Disassembly of section .text:

00000000 <main>:
#include "stat.h"
#include "user.h"
#include "stddef.h"

int main(int argc, char **argv)
{
   0:	8d 4c 24 04          	lea    0x4(%esp),%ecx
   4:	83 e4 f0             	and    $0xfffffff0,%esp
   7:	ff 71 fc             	push   -0x4(%ecx)
   a:	55                   	push   %ebp
   b:	89 e5                	mov    %esp,%ebp
   d:	57                   	push   %edi
   e:	56                   	push   %esi
   f:	53                   	push   %ebx
  10:	51                   	push   %ecx
  11:	83 ec 18             	sub    $0x18,%esp
  14:	8b 01                	mov    (%ecx),%eax
  16:	8b 59 04             	mov    0x4(%ecx),%ebx
  19:	89 45 e4             	mov    %eax,-0x1c(%ebp)
    if (argc <= 1)
  1c:	83 f8 01             	cmp    $0x1,%eax
  1f:	7e 6b                	jle    8c <main+0x8c>
  21:	8b 55 e4             	mov    -0x1c(%ebp),%edx
  24:	89 d8                	mov    %ebx,%eax
  26:	8d 3c 95 00 00 00 00 	lea    0x0(,%edx,4),%edi
  2d:	8d 4c 3b fc          	lea    -0x4(%ebx,%edi,1),%ecx
  31:	8d b4 26 00 00 00 00 	lea    0x0(%esi,%eiz,1),%esi
        exit();
    }
    char **args = argv;
    for (int i = 1; i < argc; i++)
    {
        args[i - 1] = argv[i];
  38:	8b 50 04             	mov    0x4(%eax),%edx
    for (int i = 1; i < argc; i++)
  3b:	83 c0 04             	add    $0x4,%eax
        args[i - 1] = argv[i];
  3e:	89 50 fc             	mov    %edx,-0x4(%eax)
    for (int i = 1; i < argc; i++)
  41:	39 c8                	cmp    %ecx,%eax
  43:	75 f3                	jne    38 <main+0x38>
    }
    args[argc - 1] = NULL;
  45:	c7 44 3b fc 00 00 00 	movl   $0x0,-0x4(%ebx,%edi,1)
  4c:	00 

    // Implement your code here
    for (int i = 0; i < argc; i++)
  4d:	31 ff                	xor    %edi,%edi
  4f:	90                   	nop
    {

        int ret = fork();
  50:	e8 b6 02 00 00       	call   30b <fork>

        if (ret <= 0)
  55:	85 c0                	test   %eax,%eax
  57:	7e 2e                	jle    87 <main+0x87>
        {
            exit();
        }
        else
        {
            int reaped_pid = wait();
  59:	e8 bd 02 00 00       	call   31b <wait>
            exec(argv[i], args);
  5e:	83 ec 08             	sub    $0x8,%esp
  61:	53                   	push   %ebx
            int reaped_pid = wait();
  62:	89 c6                	mov    %eax,%esi
            exec(argv[i], args);
  64:	ff 34 bb             	push   (%ebx,%edi,4)
    for (int i = 0; i < argc; i++)
  67:	83 c7 01             	add    $0x1,%edi
            exec(argv[i], args);
  6a:	e8 dc 02 00 00       	call   34b <exec>
            printf(1, "%d", reaped_pid);
  6f:	83 c4 0c             	add    $0xc,%esp
  72:	56                   	push   %esi
  73:	68 d0 08 00 00       	push   $0x8d0
  78:	6a 01                	push   $0x1
  7a:	e8 91 04 00 00       	call   510 <printf>
    for (int i = 0; i < argc; i++)
  7f:	83 c4 10             	add    $0x10,%esp
  82:	39 7d e4             	cmp    %edi,-0x1c(%ebp)
  85:	75 c9                	jne    50 <main+0x50>
            exit();
  87:	e8 87 02 00 00       	call   313 <exit>
        printf(1, "not any argument exititng the program\n");
  8c:	50                   	push   %eax
  8d:	50                   	push   %eax
  8e:	68 38 08 00 00       	push   $0x838
  93:	6a 01                	push   $0x1
  95:	e8 76 04 00 00       	call   510 <printf>
        printf(1, "please enter any existing argument like ls , echo and wc etc\n");
  9a:	5a                   	pop    %edx
  9b:	59                   	pop    %ecx
  9c:	68 60 08 00 00       	push   $0x860
  a1:	6a 01                	push   $0x1
  a3:	e8 68 04 00 00       	call   510 <printf>
        printf(1, "example cmd ls or cmd echo priyam or cmd wc ls\n");
  a8:	5b                   	pop    %ebx
  a9:	5e                   	pop    %esi
  aa:	68 a0 08 00 00       	push   $0x8a0
  af:	6a 01                	push   $0x1
  b1:	e8 5a 04 00 00       	call   510 <printf>
        exit();
  b6:	e8 58 02 00 00       	call   313 <exit>
  bb:	66 90                	xchg   %ax,%ax
  bd:	66 90                	xchg   %ax,%ax
  bf:	90                   	nop

000000c0 <strcpy>:
#include "user.h"
#include "x86.h"

char*
strcpy(char *s, const char *t)
{
  c0:	55                   	push   %ebp
  char *os;

  os = s;
  while((*s++ = *t++) != 0)
  c1:	31 c0                	xor    %eax,%eax
{
  c3:	89 e5                	mov    %esp,%ebp
  c5:	53                   	push   %ebx
  c6:	8b 4d 08             	mov    0x8(%ebp),%ecx
  c9:	8b 5d 0c             	mov    0xc(%ebp),%ebx
  cc:	8d 74 26 00          	lea    0x0(%esi,%eiz,1),%esi
  while((*s++ = *t++) != 0)
  d0:	0f b6 14 03          	movzbl (%ebx,%eax,1),%edx
  d4:	88 14 01             	mov    %dl,(%ecx,%eax,1)
  d7:	83 c0 01             	add    $0x1,%eax
  da:	84 d2                	test   %dl,%dl
  dc:	75 f2                	jne    d0 <strcpy+0x10>
    ;
  return os;
}
  de:	8b 5d fc             	mov    -0x4(%ebp),%ebx
  e1:	89 c8                	mov    %ecx,%eax
  e3:	c9                   	leave  
  e4:	c3                   	ret    
  e5:	8d b4 26 00 00 00 00 	lea    0x0(%esi,%eiz,1),%esi
  ec:	8d 74 26 00          	lea    0x0(%esi,%eiz,1),%esi

000000f0 <strcmp>:

int
strcmp(const char *p, const char *q)
{
  f0:	55                   	push   %ebp
  f1:	89 e5                	mov    %esp,%ebp
  f3:	53                   	push   %ebx
  f4:	8b 55 08             	mov    0x8(%ebp),%edx
  f7:	8b 4d 0c             	mov    0xc(%ebp),%ecx
  while(*p && *p == *q)
  fa:	0f b6 02             	movzbl (%edx),%eax
  fd:	84 c0                	test   %al,%al
  ff:	75 17                	jne    118 <strcmp+0x28>
 101:	eb 3a                	jmp    13d <strcmp+0x4d>
 103:	8d 74 26 00          	lea    0x0(%esi,%eiz,1),%esi
 107:	90                   	nop
 108:	0f b6 42 01          	movzbl 0x1(%edx),%eax
    p++, q++;
 10c:	83 c2 01             	add    $0x1,%edx
 10f:	8d 59 01             	lea    0x1(%ecx),%ebx
  while(*p && *p == *q)
 112:	84 c0                	test   %al,%al
 114:	74 1a                	je     130 <strcmp+0x40>
    p++, q++;
 116:	89 d9                	mov    %ebx,%ecx
  while(*p && *p == *q)
 118:	0f b6 19             	movzbl (%ecx),%ebx
 11b:	38 c3                	cmp    %al,%bl
 11d:	74 e9                	je     108 <strcmp+0x18>
  return (uchar)*p - (uchar)*q;
 11f:	29 d8                	sub    %ebx,%eax
}
 121:	8b 5d fc             	mov    -0x4(%ebp),%ebx
 124:	c9                   	leave  
 125:	c3                   	ret    
 126:	8d b4 26 00 00 00 00 	lea    0x0(%esi,%eiz,1),%esi
 12d:	8d 76 00             	lea    0x0(%esi),%esi
  return (uchar)*p - (uchar)*q;
 130:	0f b6 59 01          	movzbl 0x1(%ecx),%ebx
 134:	31 c0                	xor    %eax,%eax
 136:	29 d8                	sub    %ebx,%eax
}
 138:	8b 5d fc             	mov    -0x4(%ebp),%ebx
 13b:	c9                   	leave  
 13c:	c3                   	ret    
  return (uchar)*p - (uchar)*q;
 13d:	0f b6 19             	movzbl (%ecx),%ebx
 140:	31 c0                	xor    %eax,%eax
 142:	eb db                	jmp    11f <strcmp+0x2f>
 144:	8d b4 26 00 00 00 00 	lea    0x0(%esi,%eiz,1),%esi
 14b:	8d 74 26 00          	lea    0x0(%esi,%eiz,1),%esi
 14f:	90                   	nop

00000150 <strlen>:

uint
strlen(const char *s)
{
 150:	55                   	push   %ebp
 151:	89 e5                	mov    %esp,%ebp
 153:	8b 55 08             	mov    0x8(%ebp),%edx
  int n;

  for(n = 0; s[n]; n++)
 156:	80 3a 00             	cmpb   $0x0,(%edx)
 159:	74 15                	je     170 <strlen+0x20>
 15b:	31 c0                	xor    %eax,%eax
 15d:	8d 76 00             	lea    0x0(%esi),%esi
 160:	83 c0 01             	add    $0x1,%eax
 163:	80 3c 02 00          	cmpb   $0x0,(%edx,%eax,1)
 167:	89 c1                	mov    %eax,%ecx
 169:	75 f5                	jne    160 <strlen+0x10>
    ;
  return n;
}
 16b:	89 c8                	mov    %ecx,%eax
 16d:	5d                   	pop    %ebp
 16e:	c3                   	ret    
 16f:	90                   	nop
  for(n = 0; s[n]; n++)
 170:	31 c9                	xor    %ecx,%ecx
}
 172:	5d                   	pop    %ebp
 173:	89 c8                	mov    %ecx,%eax
 175:	c3                   	ret    
 176:	8d b4 26 00 00 00 00 	lea    0x0(%esi,%eiz,1),%esi
 17d:	8d 76 00             	lea    0x0(%esi),%esi

00000180 <memset>:

void*
memset(void *dst, int c, uint n)
{
 180:	55                   	push   %ebp
 181:	89 e5                	mov    %esp,%ebp
 183:	57                   	push   %edi
 184:	8b 55 08             	mov    0x8(%ebp),%edx
}

static inline void
stosb(void *addr, int data, int cnt)
{
  asm volatile("cld; rep stosb" :
 187:	8b 4d 10             	mov    0x10(%ebp),%ecx
 18a:	8b 45 0c             	mov    0xc(%ebp),%eax
 18d:	89 d7                	mov    %edx,%edi
 18f:	fc                   	cld    
 190:	f3 aa                	rep stos %al,%es:(%edi)
  stosb(dst, c, n);
  return dst;
}
 192:	8b 7d fc             	mov    -0x4(%ebp),%edi
 195:	89 d0                	mov    %edx,%eax
 197:	c9                   	leave  
 198:	c3                   	ret    
 199:	8d b4 26 00 00 00 00 	lea    0x0(%esi,%eiz,1),%esi

000001a0 <strchr>:

char*
strchr(const char *s, char c)
{
 1a0:	55                   	push   %ebp
 1a1:	89 e5                	mov    %esp,%ebp
 1a3:	8b 45 08             	mov    0x8(%ebp),%eax
 1a6:	0f b6 4d 0c          	movzbl 0xc(%ebp),%ecx
  for(; *s; s++)
 1aa:	0f b6 10             	movzbl (%eax),%edx
 1ad:	84 d2                	test   %dl,%dl
 1af:	75 12                	jne    1c3 <strchr+0x23>
 1b1:	eb 1d                	jmp    1d0 <strchr+0x30>
 1b3:	8d 74 26 00          	lea    0x0(%esi,%eiz,1),%esi
 1b7:	90                   	nop
 1b8:	0f b6 50 01          	movzbl 0x1(%eax),%edx
 1bc:	83 c0 01             	add    $0x1,%eax
 1bf:	84 d2                	test   %dl,%dl
 1c1:	74 0d                	je     1d0 <strchr+0x30>
    if(*s == c)
 1c3:	38 d1                	cmp    %dl,%cl
 1c5:	75 f1                	jne    1b8 <strchr+0x18>
      return (char*)s;
  return 0;
}
 1c7:	5d                   	pop    %ebp
 1c8:	c3                   	ret    
 1c9:	8d b4 26 00 00 00 00 	lea    0x0(%esi,%eiz,1),%esi
  return 0;
 1d0:	31 c0                	xor    %eax,%eax
}
 1d2:	5d                   	pop    %ebp
 1d3:	c3                   	ret    
 1d4:	8d b4 26 00 00 00 00 	lea    0x0(%esi,%eiz,1),%esi
 1db:	8d 74 26 00          	lea    0x0(%esi,%eiz,1),%esi
 1df:	90                   	nop

000001e0 <gets>:

char*
gets(char *buf, int max)
{
 1e0:	55                   	push   %ebp
 1e1:	89 e5                	mov    %esp,%ebp
 1e3:	57                   	push   %edi
 1e4:	56                   	push   %esi
  int i, cc;
  char c;

  for(i=0; i+1 < max; ){
    cc = read(0, &c, 1);
 1e5:	8d 7d e7             	lea    -0x19(%ebp),%edi
{
 1e8:	53                   	push   %ebx
  for(i=0; i+1 < max; ){
 1e9:	31 db                	xor    %ebx,%ebx
{
 1eb:	83 ec 1c             	sub    $0x1c,%esp
  for(i=0; i+1 < max; ){
 1ee:	eb 27                	jmp    217 <gets+0x37>
    cc = read(0, &c, 1);
 1f0:	83 ec 04             	sub    $0x4,%esp
 1f3:	6a 01                	push   $0x1
 1f5:	57                   	push   %edi
 1f6:	6a 00                	push   $0x0
 1f8:	e8 2e 01 00 00       	call   32b <read>
    if(cc < 1)
 1fd:	83 c4 10             	add    $0x10,%esp
 200:	85 c0                	test   %eax,%eax
 202:	7e 1d                	jle    221 <gets+0x41>
      break;
    buf[i++] = c;
 204:	0f b6 45 e7          	movzbl -0x19(%ebp),%eax
 208:	8b 55 08             	mov    0x8(%ebp),%edx
 20b:	88 44 1a ff          	mov    %al,-0x1(%edx,%ebx,1)
    if(c == '\n' || c == '\r')
 20f:	3c 0a                	cmp    $0xa,%al
 211:	74 1d                	je     230 <gets+0x50>
 213:	3c 0d                	cmp    $0xd,%al
 215:	74 19                	je     230 <gets+0x50>
  for(i=0; i+1 < max; ){
 217:	89 de                	mov    %ebx,%esi
 219:	83 c3 01             	add    $0x1,%ebx
 21c:	3b 5d 0c             	cmp    0xc(%ebp),%ebx
 21f:	7c cf                	jl     1f0 <gets+0x10>
      break;
  }
  buf[i] = '\0';
 221:	8b 45 08             	mov    0x8(%ebp),%eax
 224:	c6 04 30 00          	movb   $0x0,(%eax,%esi,1)
  return buf;
}
 228:	8d 65 f4             	lea    -0xc(%ebp),%esp
 22b:	5b                   	pop    %ebx
 22c:	5e                   	pop    %esi
 22d:	5f                   	pop    %edi
 22e:	5d                   	pop    %ebp
 22f:	c3                   	ret    
  buf[i] = '\0';
 230:	8b 45 08             	mov    0x8(%ebp),%eax
 233:	89 de                	mov    %ebx,%esi
 235:	c6 04 30 00          	movb   $0x0,(%eax,%esi,1)
}
 239:	8d 65 f4             	lea    -0xc(%ebp),%esp
 23c:	5b                   	pop    %ebx
 23d:	5e                   	pop    %esi
 23e:	5f                   	pop    %edi
 23f:	5d                   	pop    %ebp
 240:	c3                   	ret    
 241:	8d b4 26 00 00 00 00 	lea    0x0(%esi,%eiz,1),%esi
 248:	8d b4 26 00 00 00 00 	lea    0x0(%esi,%eiz,1),%esi
 24f:	90                   	nop

00000250 <stat>:

int
stat(const char *n, struct stat *st)
{
 250:	55                   	push   %ebp
 251:	89 e5                	mov    %esp,%ebp
 253:	56                   	push   %esi
 254:	53                   	push   %ebx
  int fd;
  int r;

  fd = open(n, O_RDONLY);
 255:	83 ec 08             	sub    $0x8,%esp
 258:	6a 00                	push   $0x0
 25a:	ff 75 08             	push   0x8(%ebp)
 25d:	e8 f1 00 00 00       	call   353 <open>
  if(fd < 0)
 262:	83 c4 10             	add    $0x10,%esp
 265:	85 c0                	test   %eax,%eax
 267:	78 27                	js     290 <stat+0x40>
    return -1;
  r = fstat(fd, st);
 269:	83 ec 08             	sub    $0x8,%esp
 26c:	ff 75 0c             	push   0xc(%ebp)
 26f:	89 c3                	mov    %eax,%ebx
 271:	50                   	push   %eax
 272:	e8 f4 00 00 00       	call   36b <fstat>
  close(fd);
 277:	89 1c 24             	mov    %ebx,(%esp)
  r = fstat(fd, st);
 27a:	89 c6                	mov    %eax,%esi
  close(fd);
 27c:	e8 ba 00 00 00       	call   33b <close>
  return r;
 281:	83 c4 10             	add    $0x10,%esp
}
 284:	8d 65 f8             	lea    -0x8(%ebp),%esp
 287:	89 f0                	mov    %esi,%eax
 289:	5b                   	pop    %ebx
 28a:	5e                   	pop    %esi
 28b:	5d                   	pop    %ebp
 28c:	c3                   	ret    
 28d:	8d 76 00             	lea    0x0(%esi),%esi
    return -1;
 290:	be ff ff ff ff       	mov    $0xffffffff,%esi
 295:	eb ed                	jmp    284 <stat+0x34>
 297:	8d b4 26 00 00 00 00 	lea    0x0(%esi,%eiz,1),%esi
 29e:	66 90                	xchg   %ax,%ax

000002a0 <atoi>:

int
atoi(const char *s)
{
 2a0:	55                   	push   %ebp
 2a1:	89 e5                	mov    %esp,%ebp
 2a3:	53                   	push   %ebx
 2a4:	8b 55 08             	mov    0x8(%ebp),%edx
  int n;

  n = 0;
  while('0' <= *s && *s <= '9')
 2a7:	0f be 02             	movsbl (%edx),%eax
 2aa:	8d 48 d0             	lea    -0x30(%eax),%ecx
 2ad:	80 f9 09             	cmp    $0x9,%cl
  n = 0;
 2b0:	b9 00 00 00 00       	mov    $0x0,%ecx
  while('0' <= *s && *s <= '9')
 2b5:	77 1e                	ja     2d5 <atoi+0x35>
 2b7:	8d b4 26 00 00 00 00 	lea    0x0(%esi,%eiz,1),%esi
 2be:	66 90                	xchg   %ax,%ax
    n = n*10 + *s++ - '0';
 2c0:	83 c2 01             	add    $0x1,%edx
 2c3:	8d 0c 89             	lea    (%ecx,%ecx,4),%ecx
 2c6:	8d 4c 48 d0          	lea    -0x30(%eax,%ecx,2),%ecx
  while('0' <= *s && *s <= '9')
 2ca:	0f be 02             	movsbl (%edx),%eax
 2cd:	8d 58 d0             	lea    -0x30(%eax),%ebx
 2d0:	80 fb 09             	cmp    $0x9,%bl
 2d3:	76 eb                	jbe    2c0 <atoi+0x20>
  return n;
}
 2d5:	8b 5d fc             	mov    -0x4(%ebp),%ebx
 2d8:	89 c8                	mov    %ecx,%eax
 2da:	c9                   	leave  
 2db:	c3                   	ret    
 2dc:	8d 74 26 00          	lea    0x0(%esi,%eiz,1),%esi

000002e0 <memmove>:

void*
memmove(void *vdst, const void *vsrc, int n)
{
 2e0:	55                   	push   %ebp
 2e1:	89 e5                	mov    %esp,%ebp
 2e3:	57                   	push   %edi
 2e4:	8b 45 10             	mov    0x10(%ebp),%eax
 2e7:	8b 55 08             	mov    0x8(%ebp),%edx
 2ea:	56                   	push   %esi
 2eb:	8b 75 0c             	mov    0xc(%ebp),%esi
  char *dst;
  const char *src;

  dst = vdst;
  src = vsrc;
  while(n-- > 0)
 2ee:	85 c0                	test   %eax,%eax
 2f0:	7e 13                	jle    305 <memmove+0x25>
 2f2:	01 d0                	add    %edx,%eax
  dst = vdst;
 2f4:	89 d7                	mov    %edx,%edi
 2f6:	8d b4 26 00 00 00 00 	lea    0x0(%esi,%eiz,1),%esi
 2fd:	8d 76 00             	lea    0x0(%esi),%esi
    *dst++ = *src++;
 300:	a4                   	movsb  %ds:(%esi),%es:(%edi)
  while(n-- > 0)
 301:	39 f8                	cmp    %edi,%eax
 303:	75 fb                	jne    300 <memmove+0x20>
  return vdst;
}
 305:	5e                   	pop    %esi
 306:	89 d0                	mov    %edx,%eax
 308:	5f                   	pop    %edi
 309:	5d                   	pop    %ebp
 30a:	c3                   	ret    

0000030b <fork>:
  name: \
    movl $SYS_ ## name, %eax; \
    int $T_SYSCALL; \
    ret

SYSCALL(fork)
 30b:	b8 01 00 00 00       	mov    $0x1,%eax
 310:	cd 40                	int    $0x40
 312:	c3                   	ret    

00000313 <exit>:
SYSCALL(exit)
 313:	b8 02 00 00 00       	mov    $0x2,%eax
 318:	cd 40                	int    $0x40
 31a:	c3                   	ret    

0000031b <wait>:
SYSCALL(wait)
 31b:	b8 03 00 00 00       	mov    $0x3,%eax
 320:	cd 40                	int    $0x40
 322:	c3                   	ret    

00000323 <pipe>:
SYSCALL(pipe)
 323:	b8 04 00 00 00       	mov    $0x4,%eax
 328:	cd 40                	int    $0x40
 32a:	c3                   	ret    

0000032b <read>:
SYSCALL(read)
 32b:	b8 05 00 00 00       	mov    $0x5,%eax
 330:	cd 40                	int    $0x40
 332:	c3                   	ret    

00000333 <write>:
SYSCALL(write)
 333:	b8 10 00 00 00       	mov    $0x10,%eax
 338:	cd 40                	int    $0x40
 33a:	c3                   	ret    

0000033b <close>:
SYSCALL(close)
 33b:	b8 15 00 00 00       	mov    $0x15,%eax
 340:	cd 40                	int    $0x40
 342:	c3                   	ret    

00000343 <kill>:
SYSCALL(kill)
 343:	b8 06 00 00 00       	mov    $0x6,%eax
 348:	cd 40                	int    $0x40
 34a:	c3                   	ret    

0000034b <exec>:
SYSCALL(exec)
 34b:	b8 07 00 00 00       	mov    $0x7,%eax
 350:	cd 40                	int    $0x40
 352:	c3                   	ret    

00000353 <open>:
SYSCALL(open)
 353:	b8 0f 00 00 00       	mov    $0xf,%eax
 358:	cd 40                	int    $0x40
 35a:	c3                   	ret    

0000035b <mknod>:
SYSCALL(mknod)
 35b:	b8 11 00 00 00       	mov    $0x11,%eax
 360:	cd 40                	int    $0x40
 362:	c3                   	ret    

00000363 <unlink>:
SYSCALL(unlink)
 363:	b8 12 00 00 00       	mov    $0x12,%eax
 368:	cd 40                	int    $0x40
 36a:	c3                   	ret    

0000036b <fstat>:
SYSCALL(fstat)
 36b:	b8 08 00 00 00       	mov    $0x8,%eax
 370:	cd 40                	int    $0x40
 372:	c3                   	ret    

00000373 <link>:
SYSCALL(link)
 373:	b8 13 00 00 00       	mov    $0x13,%eax
 378:	cd 40                	int    $0x40
 37a:	c3                   	ret    

0000037b <mkdir>:
SYSCALL(mkdir)
 37b:	b8 14 00 00 00       	mov    $0x14,%eax
 380:	cd 40                	int    $0x40
 382:	c3                   	ret    

00000383 <chdir>:
SYSCALL(chdir)
 383:	b8 09 00 00 00       	mov    $0x9,%eax
 388:	cd 40                	int    $0x40
 38a:	c3                   	ret    

0000038b <dup>:
SYSCALL(dup)
 38b:	b8 0a 00 00 00       	mov    $0xa,%eax
 390:	cd 40                	int    $0x40
 392:	c3                   	ret    

00000393 <getpid>:
SYSCALL(getpid)
 393:	b8 0b 00 00 00       	mov    $0xb,%eax
 398:	cd 40                	int    $0x40
 39a:	c3                   	ret    

0000039b <sbrk>:
SYSCALL(sbrk)
 39b:	b8 0c 00 00 00       	mov    $0xc,%eax
 3a0:	cd 40                	int    $0x40
 3a2:	c3                   	ret    

000003a3 <sleep>:
SYSCALL(sleep)
 3a3:	b8 0d 00 00 00       	mov    $0xd,%eax
 3a8:	cd 40                	int    $0x40
 3aa:	c3                   	ret    

000003ab <uptime>:
SYSCALL(uptime)
 3ab:	b8 0e 00 00 00       	mov    $0xe,%eax
 3b0:	cd 40                	int    $0x40
 3b2:	c3                   	ret    

000003b3 <hello>:
SYSCALL(hello)
 3b3:	b8 16 00 00 00       	mov    $0x16,%eax
 3b8:	cd 40                	int    $0x40
 3ba:	c3                   	ret    

000003bb <helloYou>:
SYSCALL(helloYou)
 3bb:	b8 17 00 00 00       	mov    $0x17,%eax
 3c0:	cd 40                	int    $0x40
 3c2:	c3                   	ret    

000003c3 <getppid>:
SYSCALL(getppid)
 3c3:	b8 18 00 00 00       	mov    $0x18,%eax
 3c8:	cd 40                	int    $0x40
 3ca:	c3                   	ret    

000003cb <get_siblings_info>:
SYSCALL(get_siblings_info)
 3cb:	b8 19 00 00 00       	mov    $0x19,%eax
 3d0:	cd 40                	int    $0x40
 3d2:	c3                   	ret    

000003d3 <signalProcess>:
SYSCALL(signalProcess)
 3d3:	b8 1a 00 00 00       	mov    $0x1a,%eax
 3d8:	cd 40                	int    $0x40
 3da:	c3                   	ret    

000003db <numvp>:
SYSCALL(numvp)
 3db:	b8 1b 00 00 00       	mov    $0x1b,%eax
 3e0:	cd 40                	int    $0x40
 3e2:	c3                   	ret    

000003e3 <numpp>:
SYSCALL(numpp)
 3e3:	b8 1c 00 00 00       	mov    $0x1c,%eax
 3e8:	cd 40                	int    $0x40
 3ea:	c3                   	ret    

000003eb <init_counter>:

SYSCALL(init_counter)
 3eb:	b8 1d 00 00 00       	mov    $0x1d,%eax
 3f0:	cd 40                	int    $0x40
 3f2:	c3                   	ret    

000003f3 <update_cnt>:
SYSCALL(update_cnt)
 3f3:	b8 1e 00 00 00       	mov    $0x1e,%eax
 3f8:	cd 40                	int    $0x40
 3fa:	c3                   	ret    

000003fb <display_count>:
SYSCALL(display_count)
 3fb:	b8 1f 00 00 00       	mov    $0x1f,%eax
 400:	cd 40                	int    $0x40
 402:	c3                   	ret    

00000403 <init_counter_1>:
SYSCALL(init_counter_1)
 403:	b8 20 00 00 00       	mov    $0x20,%eax
 408:	cd 40                	int    $0x40
 40a:	c3                   	ret    

0000040b <update_cnt_1>:
SYSCALL(update_cnt_1)
 40b:	b8 21 00 00 00       	mov    $0x21,%eax
 410:	cd 40                	int    $0x40
 412:	c3                   	ret    

00000413 <display_count_1>:
SYSCALL(display_count_1)
 413:	b8 22 00 00 00       	mov    $0x22,%eax
 418:	cd 40                	int    $0x40
 41a:	c3                   	ret    

0000041b <init_counter_2>:
SYSCALL(init_counter_2)
 41b:	b8 23 00 00 00       	mov    $0x23,%eax
 420:	cd 40                	int    $0x40
 422:	c3                   	ret    

00000423 <update_cnt_2>:
SYSCALL(update_cnt_2)
 423:	b8 24 00 00 00       	mov    $0x24,%eax
 428:	cd 40                	int    $0x40
 42a:	c3                   	ret    

0000042b <display_count_2>:
SYSCALL(display_count_2)
 42b:	b8 25 00 00 00       	mov    $0x25,%eax
 430:	cd 40                	int    $0x40
 432:	c3                   	ret    

00000433 <init_mylock>:
SYSCALL(init_mylock)
 433:	b8 26 00 00 00       	mov    $0x26,%eax
 438:	cd 40                	int    $0x40
 43a:	c3                   	ret    

0000043b <acquire_mylock>:
SYSCALL(acquire_mylock)
 43b:	b8 27 00 00 00       	mov    $0x27,%eax
 440:	cd 40                	int    $0x40
 442:	c3                   	ret    

00000443 <release_mylock>:
SYSCALL(release_mylock)
 443:	b8 28 00 00 00       	mov    $0x28,%eax
 448:	cd 40                	int    $0x40
 44a:	c3                   	ret    

0000044b <holding_mylock>:
 44b:	b8 29 00 00 00       	mov    $0x29,%eax
 450:	cd 40                	int    $0x40
 452:	c3                   	ret    
 453:	66 90                	xchg   %ax,%ax
 455:	66 90                	xchg   %ax,%ax
 457:	66 90                	xchg   %ax,%ax
 459:	66 90                	xchg   %ax,%ax
 45b:	66 90                	xchg   %ax,%ax
 45d:	66 90                	xchg   %ax,%ax
 45f:	90                   	nop

00000460 <printint>:
  write(fd, &c, 1);
}

static void
printint(int fd, int xx, int base, int sgn)
{
 460:	55                   	push   %ebp
 461:	89 e5                	mov    %esp,%ebp
 463:	57                   	push   %edi
 464:	56                   	push   %esi
 465:	53                   	push   %ebx
 466:	83 ec 3c             	sub    $0x3c,%esp
 469:	89 4d c4             	mov    %ecx,-0x3c(%ebp)
  uint x;

  neg = 0;
  if(sgn && xx < 0){
    neg = 1;
    x = -xx;
 46c:	89 d1                	mov    %edx,%ecx
{
 46e:	89 45 b8             	mov    %eax,-0x48(%ebp)
  if(sgn && xx < 0){
 471:	85 d2                	test   %edx,%edx
 473:	0f 89 7f 00 00 00    	jns    4f8 <printint+0x98>
 479:	f6 45 08 01          	testb  $0x1,0x8(%ebp)
 47d:	74 79                	je     4f8 <printint+0x98>
    neg = 1;
 47f:	c7 45 bc 01 00 00 00 	movl   $0x1,-0x44(%ebp)
    x = -xx;
 486:	f7 d9                	neg    %ecx
  } else {
    x = xx;
  }

  i = 0;
 488:	31 db                	xor    %ebx,%ebx
 48a:	8d 75 d7             	lea    -0x29(%ebp),%esi
 48d:	8d 76 00             	lea    0x0(%esi),%esi
  do{
    buf[i++] = digits[x % base];
 490:	89 c8                	mov    %ecx,%eax
 492:	31 d2                	xor    %edx,%edx
 494:	89 cf                	mov    %ecx,%edi
 496:	f7 75 c4             	divl   -0x3c(%ebp)
 499:	0f b6 92 34 09 00 00 	movzbl 0x934(%edx),%edx
 4a0:	89 45 c0             	mov    %eax,-0x40(%ebp)
 4a3:	89 d8                	mov    %ebx,%eax
 4a5:	8d 5b 01             	lea    0x1(%ebx),%ebx
  }while((x /= base) != 0);
 4a8:	8b 4d c0             	mov    -0x40(%ebp),%ecx
    buf[i++] = digits[x % base];
 4ab:	88 14 1e             	mov    %dl,(%esi,%ebx,1)
  }while((x /= base) != 0);
 4ae:	39 7d c4             	cmp    %edi,-0x3c(%ebp)
 4b1:	76 dd                	jbe    490 <printint+0x30>
  if(neg)
 4b3:	8b 4d bc             	mov    -0x44(%ebp),%ecx
 4b6:	85 c9                	test   %ecx,%ecx
 4b8:	74 0c                	je     4c6 <printint+0x66>
    buf[i++] = '-';
 4ba:	c6 44 1d d8 2d       	movb   $0x2d,-0x28(%ebp,%ebx,1)
    buf[i++] = digits[x % base];
 4bf:	89 d8                	mov    %ebx,%eax
    buf[i++] = '-';
 4c1:	ba 2d 00 00 00       	mov    $0x2d,%edx

  while(--i >= 0)
 4c6:	8b 7d b8             	mov    -0x48(%ebp),%edi
 4c9:	8d 5c 05 d7          	lea    -0x29(%ebp,%eax,1),%ebx
 4cd:	eb 07                	jmp    4d6 <printint+0x76>
 4cf:	90                   	nop
    putc(fd, buf[i]);
 4d0:	0f b6 13             	movzbl (%ebx),%edx
 4d3:	83 eb 01             	sub    $0x1,%ebx
  write(fd, &c, 1);
 4d6:	83 ec 04             	sub    $0x4,%esp
 4d9:	88 55 d7             	mov    %dl,-0x29(%ebp)
 4dc:	6a 01                	push   $0x1
 4de:	56                   	push   %esi
 4df:	57                   	push   %edi
 4e0:	e8 4e fe ff ff       	call   333 <write>
  while(--i >= 0)
 4e5:	83 c4 10             	add    $0x10,%esp
 4e8:	39 de                	cmp    %ebx,%esi
 4ea:	75 e4                	jne    4d0 <printint+0x70>
}
 4ec:	8d 65 f4             	lea    -0xc(%ebp),%esp
 4ef:	5b                   	pop    %ebx
 4f0:	5e                   	pop    %esi
 4f1:	5f                   	pop    %edi
 4f2:	5d                   	pop    %ebp
 4f3:	c3                   	ret    
 4f4:	8d 74 26 00          	lea    0x0(%esi,%eiz,1),%esi
  neg = 0;
 4f8:	c7 45 bc 00 00 00 00 	movl   $0x0,-0x44(%ebp)
 4ff:	eb 87                	jmp    488 <printint+0x28>
 501:	8d b4 26 00 00 00 00 	lea    0x0(%esi,%eiz,1),%esi
 508:	8d b4 26 00 00 00 00 	lea    0x0(%esi,%eiz,1),%esi
 50f:	90                   	nop

00000510 <printf>:

// Print to the given fd. Only understands %d, %x, %p, %s.
void
printf(int fd, const char *fmt, ...)
{
 510:	55                   	push   %ebp
 511:	89 e5                	mov    %esp,%ebp
 513:	57                   	push   %edi
 514:	56                   	push   %esi
 515:	53                   	push   %ebx
 516:	83 ec 2c             	sub    $0x2c,%esp
  int c, i, state;
  uint *ap;

  state = 0;
  ap = (uint*)(void*)&fmt + 1;
  for(i = 0; fmt[i]; i++){
 519:	8b 5d 0c             	mov    0xc(%ebp),%ebx
{
 51c:	8b 75 08             	mov    0x8(%ebp),%esi
  for(i = 0; fmt[i]; i++){
 51f:	0f b6 13             	movzbl (%ebx),%edx
 522:	84 d2                	test   %dl,%dl
 524:	74 6a                	je     590 <printf+0x80>
  ap = (uint*)(void*)&fmt + 1;
 526:	8d 45 10             	lea    0x10(%ebp),%eax
 529:	83 c3 01             	add    $0x1,%ebx
  write(fd, &c, 1);
 52c:	8d 7d e7             	lea    -0x19(%ebp),%edi
  state = 0;
 52f:	31 c9                	xor    %ecx,%ecx
  ap = (uint*)(void*)&fmt + 1;
 531:	89 45 d0             	mov    %eax,-0x30(%ebp)
 534:	eb 36                	jmp    56c <printf+0x5c>
 536:	8d b4 26 00 00 00 00 	lea    0x0(%esi,%eiz,1),%esi
 53d:	8d 76 00             	lea    0x0(%esi),%esi
 540:	89 4d d4             	mov    %ecx,-0x2c(%ebp)
    c = fmt[i] & 0xff;
    if(state == 0){
      if(c == '%'){
        state = '%';
 543:	b9 25 00 00 00       	mov    $0x25,%ecx
      if(c == '%'){
 548:	83 f8 25             	cmp    $0x25,%eax
 54b:	74 15                	je     562 <printf+0x52>
  write(fd, &c, 1);
 54d:	83 ec 04             	sub    $0x4,%esp
 550:	88 55 e7             	mov    %dl,-0x19(%ebp)
 553:	6a 01                	push   $0x1
 555:	57                   	push   %edi
 556:	56                   	push   %esi
 557:	e8 d7 fd ff ff       	call   333 <write>
 55c:	8b 4d d4             	mov    -0x2c(%ebp),%ecx
      } else {
        putc(fd, c);
 55f:	83 c4 10             	add    $0x10,%esp
  for(i = 0; fmt[i]; i++){
 562:	0f b6 13             	movzbl (%ebx),%edx
 565:	83 c3 01             	add    $0x1,%ebx
 568:	84 d2                	test   %dl,%dl
 56a:	74 24                	je     590 <printf+0x80>
    c = fmt[i] & 0xff;
 56c:	0f b6 c2             	movzbl %dl,%eax
    if(state == 0){
 56f:	85 c9                	test   %ecx,%ecx
 571:	74 cd                	je     540 <printf+0x30>
      }
    } else if(state == '%'){
 573:	83 f9 25             	cmp    $0x25,%ecx
 576:	75 ea                	jne    562 <printf+0x52>
      if(c == 'd'){
 578:	83 f8 25             	cmp    $0x25,%eax
 57b:	0f 84 07 01 00 00    	je     688 <printf+0x178>
 581:	83 e8 63             	sub    $0x63,%eax
 584:	83 f8 15             	cmp    $0x15,%eax
 587:	77 17                	ja     5a0 <printf+0x90>
 589:	ff 24 85 dc 08 00 00 	jmp    *0x8dc(,%eax,4)
        putc(fd, c);
      }
      state = 0;
    }
  }
}
 590:	8d 65 f4             	lea    -0xc(%ebp),%esp
 593:	5b                   	pop    %ebx
 594:	5e                   	pop    %esi
 595:	5f                   	pop    %edi
 596:	5d                   	pop    %ebp
 597:	c3                   	ret    
 598:	8d b4 26 00 00 00 00 	lea    0x0(%esi,%eiz,1),%esi
 59f:	90                   	nop
  write(fd, &c, 1);
 5a0:	83 ec 04             	sub    $0x4,%esp
 5a3:	88 55 d4             	mov    %dl,-0x2c(%ebp)
 5a6:	6a 01                	push   $0x1
 5a8:	57                   	push   %edi
 5a9:	56                   	push   %esi
 5aa:	c6 45 e7 25          	movb   $0x25,-0x19(%ebp)
 5ae:	e8 80 fd ff ff       	call   333 <write>
        putc(fd, c);
 5b3:	0f b6 55 d4          	movzbl -0x2c(%ebp),%edx
  write(fd, &c, 1);
 5b7:	83 c4 0c             	add    $0xc,%esp
 5ba:	88 55 e7             	mov    %dl,-0x19(%ebp)
 5bd:	6a 01                	push   $0x1
 5bf:	57                   	push   %edi
 5c0:	56                   	push   %esi
 5c1:	e8 6d fd ff ff       	call   333 <write>
        putc(fd, c);
 5c6:	83 c4 10             	add    $0x10,%esp
      state = 0;
 5c9:	31 c9                	xor    %ecx,%ecx
 5cb:	eb 95                	jmp    562 <printf+0x52>
 5cd:	8d 76 00             	lea    0x0(%esi),%esi
        printint(fd, *ap, 16, 0);
 5d0:	83 ec 0c             	sub    $0xc,%esp
 5d3:	b9 10 00 00 00       	mov    $0x10,%ecx
 5d8:	6a 00                	push   $0x0
 5da:	8b 45 d0             	mov    -0x30(%ebp),%eax
 5dd:	8b 10                	mov    (%eax),%edx
 5df:	89 f0                	mov    %esi,%eax
 5e1:	e8 7a fe ff ff       	call   460 <printint>
        ap++;
 5e6:	83 45 d0 04          	addl   $0x4,-0x30(%ebp)
 5ea:	83 c4 10             	add    $0x10,%esp
      state = 0;
 5ed:	31 c9                	xor    %ecx,%ecx
 5ef:	e9 6e ff ff ff       	jmp    562 <printf+0x52>
 5f4:	8d 74 26 00          	lea    0x0(%esi,%eiz,1),%esi
        s = (char*)*ap;
 5f8:	8b 45 d0             	mov    -0x30(%ebp),%eax
 5fb:	8b 10                	mov    (%eax),%edx
        ap++;
 5fd:	83 c0 04             	add    $0x4,%eax
 600:	89 45 d0             	mov    %eax,-0x30(%ebp)
        if(s == 0)
 603:	85 d2                	test   %edx,%edx
 605:	0f 84 8d 00 00 00    	je     698 <printf+0x188>
        while(*s != 0){
 60b:	0f b6 02             	movzbl (%edx),%eax
      state = 0;
 60e:	31 c9                	xor    %ecx,%ecx
        while(*s != 0){
 610:	84 c0                	test   %al,%al
 612:	0f 84 4a ff ff ff    	je     562 <printf+0x52>
 618:	89 5d d4             	mov    %ebx,-0x2c(%ebp)
 61b:	89 d3                	mov    %edx,%ebx
 61d:	8d 76 00             	lea    0x0(%esi),%esi
  write(fd, &c, 1);
 620:	83 ec 04             	sub    $0x4,%esp
          s++;
 623:	83 c3 01             	add    $0x1,%ebx
 626:	88 45 e7             	mov    %al,-0x19(%ebp)
  write(fd, &c, 1);
 629:	6a 01                	push   $0x1
 62b:	57                   	push   %edi
 62c:	56                   	push   %esi
 62d:	e8 01 fd ff ff       	call   333 <write>
        while(*s != 0){
 632:	0f b6 03             	movzbl (%ebx),%eax
 635:	83 c4 10             	add    $0x10,%esp
 638:	84 c0                	test   %al,%al
 63a:	75 e4                	jne    620 <printf+0x110>
      state = 0;
 63c:	8b 5d d4             	mov    -0x2c(%ebp),%ebx
 63f:	31 c9                	xor    %ecx,%ecx
 641:	e9 1c ff ff ff       	jmp    562 <printf+0x52>
 646:	8d b4 26 00 00 00 00 	lea    0x0(%esi,%eiz,1),%esi
 64d:	8d 76 00             	lea    0x0(%esi),%esi
        printint(fd, *ap, 10, 1);
 650:	83 ec 0c             	sub    $0xc,%esp
 653:	b9 0a 00 00 00       	mov    $0xa,%ecx
 658:	6a 01                	push   $0x1
 65a:	e9 7b ff ff ff       	jmp    5da <printf+0xca>
 65f:	90                   	nop
        putc(fd, *ap);
 660:	8b 45 d0             	mov    -0x30(%ebp),%eax
  write(fd, &c, 1);
 663:	83 ec 04             	sub    $0x4,%esp
        putc(fd, *ap);
 666:	8b 00                	mov    (%eax),%eax
  write(fd, &c, 1);
 668:	6a 01                	push   $0x1
 66a:	57                   	push   %edi
 66b:	56                   	push   %esi
        putc(fd, *ap);
 66c:	88 45 e7             	mov    %al,-0x19(%ebp)
  write(fd, &c, 1);
 66f:	e8 bf fc ff ff       	call   333 <write>
        ap++;
 674:	83 45 d0 04          	addl   $0x4,-0x30(%ebp)
 678:	83 c4 10             	add    $0x10,%esp
      state = 0;
 67b:	31 c9                	xor    %ecx,%ecx
 67d:	e9 e0 fe ff ff       	jmp    562 <printf+0x52>
 682:	8d b6 00 00 00 00    	lea    0x0(%esi),%esi
        putc(fd, c);
 688:	88 55 e7             	mov    %dl,-0x19(%ebp)
  write(fd, &c, 1);
 68b:	83 ec 04             	sub    $0x4,%esp
 68e:	e9 2a ff ff ff       	jmp    5bd <printf+0xad>
 693:	8d 74 26 00          	lea    0x0(%esi,%eiz,1),%esi
 697:	90                   	nop
          s = "(null)";
 698:	ba d3 08 00 00       	mov    $0x8d3,%edx
        while(*s != 0){
 69d:	89 5d d4             	mov    %ebx,-0x2c(%ebp)
 6a0:	b8 28 00 00 00       	mov    $0x28,%eax
 6a5:	89 d3                	mov    %edx,%ebx
 6a7:	e9 74 ff ff ff       	jmp    620 <printf+0x110>
 6ac:	66 90                	xchg   %ax,%ax
 6ae:	66 90                	xchg   %ax,%ax

000006b0 <free>:
static Header base;
static Header *freep;

void
free(void *ap)
{
 6b0:	55                   	push   %ebp
  Header *bp, *p;

  bp = (Header*)ap - 1;
  for(p = freep; !(bp > p && bp < p->s.ptr); p = p->s.ptr)
 6b1:	a1 e8 0b 00 00       	mov    0xbe8,%eax
{
 6b6:	89 e5                	mov    %esp,%ebp
 6b8:	57                   	push   %edi
 6b9:	56                   	push   %esi
 6ba:	53                   	push   %ebx
 6bb:	8b 5d 08             	mov    0x8(%ebp),%ebx
  bp = (Header*)ap - 1;
 6be:	8d 4b f8             	lea    -0x8(%ebx),%ecx
  for(p = freep; !(bp > p && bp < p->s.ptr); p = p->s.ptr)
 6c1:	8d b4 26 00 00 00 00 	lea    0x0(%esi,%eiz,1),%esi
 6c8:	89 c2                	mov    %eax,%edx
 6ca:	8b 00                	mov    (%eax),%eax
 6cc:	39 ca                	cmp    %ecx,%edx
 6ce:	73 30                	jae    700 <free+0x50>
 6d0:	39 c1                	cmp    %eax,%ecx
 6d2:	72 04                	jb     6d8 <free+0x28>
    if(p >= p->s.ptr && (bp > p || bp < p->s.ptr))
 6d4:	39 c2                	cmp    %eax,%edx
 6d6:	72 f0                	jb     6c8 <free+0x18>
      break;
  if(bp + bp->s.size == p->s.ptr){
 6d8:	8b 73 fc             	mov    -0x4(%ebx),%esi
 6db:	8d 3c f1             	lea    (%ecx,%esi,8),%edi
 6de:	39 f8                	cmp    %edi,%eax
 6e0:	74 30                	je     712 <free+0x62>
    bp->s.size += p->s.ptr->s.size;
    bp->s.ptr = p->s.ptr->s.ptr;
 6e2:	89 43 f8             	mov    %eax,-0x8(%ebx)
  } else
    bp->s.ptr = p->s.ptr;
  if(p + p->s.size == bp){
 6e5:	8b 42 04             	mov    0x4(%edx),%eax
 6e8:	8d 34 c2             	lea    (%edx,%eax,8),%esi
 6eb:	39 f1                	cmp    %esi,%ecx
 6ed:	74 3a                	je     729 <free+0x79>
    p->s.size += bp->s.size;
    p->s.ptr = bp->s.ptr;
 6ef:	89 0a                	mov    %ecx,(%edx)
  } else
    p->s.ptr = bp;
  freep = p;
}
 6f1:	5b                   	pop    %ebx
  freep = p;
 6f2:	89 15 e8 0b 00 00    	mov    %edx,0xbe8
}
 6f8:	5e                   	pop    %esi
 6f9:	5f                   	pop    %edi
 6fa:	5d                   	pop    %ebp
 6fb:	c3                   	ret    
 6fc:	8d 74 26 00          	lea    0x0(%esi,%eiz,1),%esi
    if(p >= p->s.ptr && (bp > p || bp < p->s.ptr))
 700:	39 c2                	cmp    %eax,%edx
 702:	72 c4                	jb     6c8 <free+0x18>
 704:	39 c1                	cmp    %eax,%ecx
 706:	73 c0                	jae    6c8 <free+0x18>
  if(bp + bp->s.size == p->s.ptr){
 708:	8b 73 fc             	mov    -0x4(%ebx),%esi
 70b:	8d 3c f1             	lea    (%ecx,%esi,8),%edi
 70e:	39 f8                	cmp    %edi,%eax
 710:	75 d0                	jne    6e2 <free+0x32>
    bp->s.size += p->s.ptr->s.size;
 712:	03 70 04             	add    0x4(%eax),%esi
 715:	89 73 fc             	mov    %esi,-0x4(%ebx)
    bp->s.ptr = p->s.ptr->s.ptr;
 718:	8b 02                	mov    (%edx),%eax
 71a:	8b 00                	mov    (%eax),%eax
 71c:	89 43 f8             	mov    %eax,-0x8(%ebx)
  if(p + p->s.size == bp){
 71f:	8b 42 04             	mov    0x4(%edx),%eax
 722:	8d 34 c2             	lea    (%edx,%eax,8),%esi
 725:	39 f1                	cmp    %esi,%ecx
 727:	75 c6                	jne    6ef <free+0x3f>
    p->s.size += bp->s.size;
 729:	03 43 fc             	add    -0x4(%ebx),%eax
  freep = p;
 72c:	89 15 e8 0b 00 00    	mov    %edx,0xbe8
    p->s.size += bp->s.size;
 732:	89 42 04             	mov    %eax,0x4(%edx)
    p->s.ptr = bp->s.ptr;
 735:	8b 4b f8             	mov    -0x8(%ebx),%ecx
 738:	89 0a                	mov    %ecx,(%edx)
}
 73a:	5b                   	pop    %ebx
 73b:	5e                   	pop    %esi
 73c:	5f                   	pop    %edi
 73d:	5d                   	pop    %ebp
 73e:	c3                   	ret    
 73f:	90                   	nop

00000740 <malloc>:
  return freep;
}

void*
malloc(uint nbytes)
{
 740:	55                   	push   %ebp
 741:	89 e5                	mov    %esp,%ebp
 743:	57                   	push   %edi
 744:	56                   	push   %esi
 745:	53                   	push   %ebx
 746:	83 ec 1c             	sub    $0x1c,%esp
  Header *p, *prevp;
  uint nunits;

  nunits = (nbytes + sizeof(Header) - 1)/sizeof(Header) + 1;
 749:	8b 45 08             	mov    0x8(%ebp),%eax
  if((prevp = freep) == 0){
 74c:	8b 3d e8 0b 00 00    	mov    0xbe8,%edi
  nunits = (nbytes + sizeof(Header) - 1)/sizeof(Header) + 1;
 752:	8d 70 07             	lea    0x7(%eax),%esi
 755:	c1 ee 03             	shr    $0x3,%esi
 758:	83 c6 01             	add    $0x1,%esi
  if((prevp = freep) == 0){
 75b:	85 ff                	test   %edi,%edi
 75d:	0f 84 9d 00 00 00    	je     800 <malloc+0xc0>
    base.s.ptr = freep = prevp = &base;
    base.s.size = 0;
  }
  for(p = prevp->s.ptr; ; prevp = p, p = p->s.ptr){
 763:	8b 17                	mov    (%edi),%edx
    if(p->s.size >= nunits){
 765:	8b 4a 04             	mov    0x4(%edx),%ecx
 768:	39 f1                	cmp    %esi,%ecx
 76a:	73 6a                	jae    7d6 <malloc+0x96>
 76c:	bb 00 10 00 00       	mov    $0x1000,%ebx
 771:	39 de                	cmp    %ebx,%esi
 773:	0f 43 de             	cmovae %esi,%ebx
  p = sbrk(nu * sizeof(Header));
 776:	8d 04 dd 00 00 00 00 	lea    0x0(,%ebx,8),%eax
 77d:	89 45 e4             	mov    %eax,-0x1c(%ebp)
 780:	eb 17                	jmp    799 <malloc+0x59>
 782:	8d b6 00 00 00 00    	lea    0x0(%esi),%esi
  for(p = prevp->s.ptr; ; prevp = p, p = p->s.ptr){
 788:	8b 02                	mov    (%edx),%eax
    if(p->s.size >= nunits){
 78a:	8b 48 04             	mov    0x4(%eax),%ecx
 78d:	39 f1                	cmp    %esi,%ecx
 78f:	73 4f                	jae    7e0 <malloc+0xa0>
        p->s.size = nunits;
      }
      freep = prevp;
      return (void*)(p + 1);
    }
    if(p == freep)
 791:	8b 3d e8 0b 00 00    	mov    0xbe8,%edi
 797:	89 c2                	mov    %eax,%edx
 799:	39 d7                	cmp    %edx,%edi
 79b:	75 eb                	jne    788 <malloc+0x48>
  p = sbrk(nu * sizeof(Header));
 79d:	83 ec 0c             	sub    $0xc,%esp
 7a0:	ff 75 e4             	push   -0x1c(%ebp)
 7a3:	e8 f3 fb ff ff       	call   39b <sbrk>
  if(p == (char*)-1)
 7a8:	83 c4 10             	add    $0x10,%esp
 7ab:	83 f8 ff             	cmp    $0xffffffff,%eax
 7ae:	74 1c                	je     7cc <malloc+0x8c>
  hp->s.size = nu;
 7b0:	89 58 04             	mov    %ebx,0x4(%eax)
  free((void*)(hp + 1));
 7b3:	83 ec 0c             	sub    $0xc,%esp
 7b6:	83 c0 08             	add    $0x8,%eax
 7b9:	50                   	push   %eax
 7ba:	e8 f1 fe ff ff       	call   6b0 <free>
  return freep;
 7bf:	8b 15 e8 0b 00 00    	mov    0xbe8,%edx
      if((p = morecore(nunits)) == 0)
 7c5:	83 c4 10             	add    $0x10,%esp
 7c8:	85 d2                	test   %edx,%edx
 7ca:	75 bc                	jne    788 <malloc+0x48>
        return 0;
  }
}
 7cc:	8d 65 f4             	lea    -0xc(%ebp),%esp
        return 0;
 7cf:	31 c0                	xor    %eax,%eax
}
 7d1:	5b                   	pop    %ebx
 7d2:	5e                   	pop    %esi
 7d3:	5f                   	pop    %edi
 7d4:	5d                   	pop    %ebp
 7d5:	c3                   	ret    
    if(p->s.size >= nunits){
 7d6:	89 d0                	mov    %edx,%eax
 7d8:	89 fa                	mov    %edi,%edx
 7da:	8d b6 00 00 00 00    	lea    0x0(%esi),%esi
      if(p->s.size == nunits)
 7e0:	39 ce                	cmp    %ecx,%esi
 7e2:	74 4c                	je     830 <malloc+0xf0>
        p->s.size -= nunits;
 7e4:	29 f1                	sub    %esi,%ecx
 7e6:	89 48 04             	mov    %ecx,0x4(%eax)
        p += p->s.size;
 7e9:	8d 04 c8             	lea    (%eax,%ecx,8),%eax
        p->s.size = nunits;
 7ec:	89 70 04             	mov    %esi,0x4(%eax)
      freep = prevp;
 7ef:	89 15 e8 0b 00 00    	mov    %edx,0xbe8
}
 7f5:	8d 65 f4             	lea    -0xc(%ebp),%esp
      return (void*)(p + 1);
 7f8:	83 c0 08             	add    $0x8,%eax
}
 7fb:	5b                   	pop    %ebx
 7fc:	5e                   	pop    %esi
 7fd:	5f                   	pop    %edi
 7fe:	5d                   	pop    %ebp
 7ff:	c3                   	ret    
    base.s.ptr = freep = prevp = &base;
 800:	c7 05 e8 0b 00 00 ec 	movl   $0xbec,0xbe8
 807:	0b 00 00 
    base.s.size = 0;
 80a:	bf ec 0b 00 00       	mov    $0xbec,%edi
    base.s.ptr = freep = prevp = &base;
 80f:	c7 05 ec 0b 00 00 ec 	movl   $0xbec,0xbec
 816:	0b 00 00 
  for(p = prevp->s.ptr; ; prevp = p, p = p->s.ptr){
 819:	89 fa                	mov    %edi,%edx
    base.s.size = 0;
 81b:	c7 05 f0 0b 00 00 00 	movl   $0x0,0xbf0
 822:	00 00 00 
    if(p->s.size >= nunits){
 825:	e9 42 ff ff ff       	jmp    76c <malloc+0x2c>
 82a:	8d b6 00 00 00 00    	lea    0x0(%esi),%esi
        prevp->s.ptr = p->s.ptr;
 830:	8b 08                	mov    (%eax),%ecx
 832:	89 0a                	mov    %ecx,(%edx)
 834:	eb b9                	jmp    7ef <malloc+0xaf>
