
_my_siblings:     file format elf32-i386


Disassembly of section .text:

00000000 <main>:
#include "user.h"

#define MAX_SZ 1000

int main(int argc, const char **argv)
{
   0:	8d 4c 24 04          	lea    0x4(%esp),%ecx
   4:	83 e4 f0             	and    $0xfffffff0,%esp
   7:	ff 71 fc             	push   -0x4(%ecx)
   a:	55                   	push   %ebp
   b:	89 e5                	mov    %esp,%ebp
   d:	57                   	push   %edi
   e:	56                   	push   %esi
   f:	53                   	push   %ebx
  10:	51                   	push   %ecx
  11:	83 ec 24             	sub    $0x24,%esp
  14:	8b 41 04             	mov    0x4(%ecx),%eax
	int n;
	n = atoi(argv[1]);
  17:	ff 70 04             	push   0x4(%eax)
  1a:	89 45 dc             	mov    %eax,-0x24(%ebp)
  1d:	e8 4e 03 00 00       	call   370 <atoi>
	int procType[n];
  22:	83 c4 10             	add    $0x10,%esp
	n = atoi(argv[1]);
  25:	89 c7                	mov    %eax,%edi
	int procType[n];
  27:	8d 04 85 0f 00 00 00 	lea    0xf(,%eax,4),%eax
  2e:	c1 e8 04             	shr    $0x4,%eax
  31:	c1 e0 04             	shl    $0x4,%eax
  34:	29 c4                	sub    %eax,%esp
  36:	89 65 e4             	mov    %esp,-0x1c(%ebp)
	int pids[n];
  39:	29 c4                	sub    %eax,%esp
  3b:	89 65 e0             	mov    %esp,-0x20(%ebp)
	int pid = getpid();
  3e:	e8 20 04 00 00       	call   463 <getpid>
  43:	89 45 d8             	mov    %eax,-0x28(%ebp)
	int i;
	// Set the Process types
	for(i=0; i<n; i++)
  46:	85 ff                	test   %edi,%edi
  48:	0f 8e ea 00 00 00    	jle    138 <main+0x138>
  4e:	8b 5d dc             	mov    -0x24(%ebp),%ebx
  51:	31 f6                	xor    %esi,%esi
  53:	8d 74 26 00          	lea    0x0(%esi,%eiz,1),%esi
  57:	90                   	nop
	{
		procType[i] = atoi(argv[i+2]);
  58:	83 ec 0c             	sub    $0xc,%esp
  5b:	ff 74 b3 08          	push   0x8(%ebx,%esi,4)
  5f:	e8 0c 03 00 00       	call   370 <atoi>
  64:	8b 55 e4             	mov    -0x1c(%ebp),%edx
	for(i=0; i<n; i++)
  67:	83 c4 10             	add    $0x10,%esp
		procType[i] = atoi(argv[i+2]);
  6a:	89 04 b2             	mov    %eax,(%edx,%esi,4)
	for(i=0; i<n; i++)
  6d:	89 f0                	mov    %esi,%eax
  6f:	8d 76 01             	lea    0x1(%esi),%esi
  72:	39 f7                	cmp    %esi,%edi
  74:	75 e2                	jne    58 <main+0x58>
  76:	89 7d dc             	mov    %edi,-0x24(%ebp)
  79:	89 c6                	mov    %eax,%esi
  7b:	8b 7d e0             	mov    -0x20(%ebp),%edi
  7e:	31 db                	xor    %ebx,%ebx
  80:	eb 2c                	jmp    ae <main+0xae>
  82:	8d b6 00 00 00 00    	lea    0x0(%esi),%esi
			{
				while(1){}
			}
			exit();
		}
		else if(ret>0) pids[i] = ret;
  88:	7e 03                	jle    8d <main+0x8d>
  8a:	89 04 9f             	mov    %eax,(%edi,%ebx,4)

	printf(1,"ppid is %d\n",getppid());
  8d:	e8 01 04 00 00       	call   493 <getppid>
  92:	83 ec 04             	sub    $0x4,%esp
  95:	50                   	push   %eax
  96:	68 08 09 00 00       	push   $0x908
  9b:	6a 01                	push   $0x1
  9d:	e8 3e 05 00 00       	call   5e0 <printf>
	for(i=0;i<n;i++)
  a2:	8d 43 01             	lea    0x1(%ebx),%eax
  a5:	83 c4 10             	add    $0x10,%esp
  a8:	39 de                	cmp    %ebx,%esi
  aa:	74 25                	je     d1 <main+0xd1>
  ac:	89 c3                	mov    %eax,%ebx
		ret = fork();
  ae:	e8 28 03 00 00       	call   3db <fork>
		if(ret == 0)
  b3:	85 c0                	test   %eax,%eax
  b5:	75 d1                	jne    88 <main+0x88>
			if(procType[i] == 0)
  b7:	8b 45 e4             	mov    -0x1c(%ebp),%eax
  ba:	8b 04 98             	mov    (%eax,%ebx,4),%eax
  bd:	85 c0                	test   %eax,%eax
  bf:	0f 84 8b 00 00 00    	je     150 <main+0x150>
			else if (procType[i] == 1)
  c5:	83 e8 01             	sub    $0x1,%eax
  c8:	74 05                	je     cf <main+0xcf>
			exit();
  ca:	e8 14 03 00 00       	call   3e3 <exit>
				while(1){}
  cf:	eb fe                	jmp    cf <main+0xcf>

	}

	int ret;
	ret = fork();
  d1:	8b 7d dc             	mov    -0x24(%ebp),%edi
  d4:	e8 02 03 00 00       	call   3db <fork>
	if(ret == 0)
  d9:	85 c0                	test   %eax,%eax
  db:	74 64                	je     141 <main+0x141>
	{
		sleep(100);
		exit();
	}
	get_siblings_info(pid);
  dd:	83 ec 0c             	sub    $0xc,%esp
  e0:	ff 75 d8             	push   -0x28(%ebp)

	// Wait for the last child
	sleep(200);
	wait();

	for (i = 0; i < n; i++)
  e3:	31 db                	xor    %ebx,%ebx
	get_siblings_info(pid);
  e5:	e8 b1 03 00 00       	call   49b <get_siblings_info>
	sleep(200);
  ea:	c7 04 24 c8 00 00 00 	movl   $0xc8,(%esp)
  f1:	e8 7d 03 00 00       	call   473 <sleep>
	wait();
  f6:	e8 f0 02 00 00       	call   3eb <wait>
	for (i = 0; i < n; i++)
  fb:	8b 75 e0             	mov    -0x20(%ebp),%esi
	wait();
  fe:	83 c4 10             	add    $0x10,%esp
 101:	8d b4 26 00 00 00 00 	lea    0x0(%esi,%eiz,1),%esi
	{
		kill(pids[i]);
 108:	83 ec 0c             	sub    $0xc,%esp
 10b:	ff 34 9e             	push   (%esi,%ebx,4)
 10e:	e8 00 03 00 00       	call   413 <kill>
	for (i = 0; i < n; i++)
 113:	89 d8                	mov    %ebx,%eax
 115:	8d 5b 01             	lea    0x1(%ebx),%ebx
 118:	83 c4 10             	add    $0x10,%esp
 11b:	39 df                	cmp    %ebx,%edi
 11d:	75 e9                	jne    108 <main+0x108>
 11f:	89 c6                	mov    %eax,%esi
 121:	31 db                	xor    %ebx,%ebx
 123:	8d 74 26 00          	lea    0x0(%esi,%eiz,1),%esi
 127:	90                   	nop
	}

	for(i = 0; i< n; i++)
		wait();
 128:	e8 be 02 00 00       	call   3eb <wait>
	for(i = 0; i< n; i++)
 12d:	89 d8                	mov    %ebx,%eax
 12f:	83 c3 01             	add    $0x1,%ebx
 132:	39 c6                	cmp    %eax,%esi
 134:	75 f2                	jne    128 <main+0x128>
 136:	eb 92                	jmp    ca <main+0xca>
	ret = fork();
 138:	e8 9e 02 00 00       	call   3db <fork>
	if(ret == 0)
 13d:	85 c0                	test   %eax,%eax
 13f:	75 24                	jne    165 <main+0x165>
		sleep(100);
 141:	83 ec 0c             	sub    $0xc,%esp
 144:	6a 64                	push   $0x64
 146:	e8 28 03 00 00       	call   473 <sleep>
		exit();
 14b:	e8 93 02 00 00       	call   3e3 <exit>
				sleep(10000);
 150:	83 ec 0c             	sub    $0xc,%esp
 153:	68 10 27 00 00       	push   $0x2710
 158:	e8 16 03 00 00       	call   473 <sleep>
 15d:	83 c4 10             	add    $0x10,%esp
 160:	e9 65 ff ff ff       	jmp    ca <main+0xca>
	get_siblings_info(pid);
 165:	83 ec 0c             	sub    $0xc,%esp
 168:	ff 75 d8             	push   -0x28(%ebp)
 16b:	e8 2b 03 00 00       	call   49b <get_siblings_info>
	sleep(200);
 170:	c7 04 24 c8 00 00 00 	movl   $0xc8,(%esp)
 177:	e8 f7 02 00 00       	call   473 <sleep>
	wait();
 17c:	e8 6a 02 00 00       	call   3eb <wait>
 181:	83 c4 10             	add    $0x10,%esp
 184:	e9 41 ff ff ff       	jmp    ca <main+0xca>
 189:	66 90                	xchg   %ax,%ax
 18b:	66 90                	xchg   %ax,%ax
 18d:	66 90                	xchg   %ax,%ax
 18f:	90                   	nop

00000190 <strcpy>:
#include "user.h"
#include "x86.h"

char*
strcpy(char *s, const char *t)
{
 190:	55                   	push   %ebp
  char *os;

  os = s;
  while((*s++ = *t++) != 0)
 191:	31 c0                	xor    %eax,%eax
{
 193:	89 e5                	mov    %esp,%ebp
 195:	53                   	push   %ebx
 196:	8b 4d 08             	mov    0x8(%ebp),%ecx
 199:	8b 5d 0c             	mov    0xc(%ebp),%ebx
 19c:	8d 74 26 00          	lea    0x0(%esi,%eiz,1),%esi
  while((*s++ = *t++) != 0)
 1a0:	0f b6 14 03          	movzbl (%ebx,%eax,1),%edx
 1a4:	88 14 01             	mov    %dl,(%ecx,%eax,1)
 1a7:	83 c0 01             	add    $0x1,%eax
 1aa:	84 d2                	test   %dl,%dl
 1ac:	75 f2                	jne    1a0 <strcpy+0x10>
    ;
  return os;
}
 1ae:	8b 5d fc             	mov    -0x4(%ebp),%ebx
 1b1:	89 c8                	mov    %ecx,%eax
 1b3:	c9                   	leave  
 1b4:	c3                   	ret    
 1b5:	8d b4 26 00 00 00 00 	lea    0x0(%esi,%eiz,1),%esi
 1bc:	8d 74 26 00          	lea    0x0(%esi,%eiz,1),%esi

000001c0 <strcmp>:

int
strcmp(const char *p, const char *q)
{
 1c0:	55                   	push   %ebp
 1c1:	89 e5                	mov    %esp,%ebp
 1c3:	53                   	push   %ebx
 1c4:	8b 55 08             	mov    0x8(%ebp),%edx
 1c7:	8b 4d 0c             	mov    0xc(%ebp),%ecx
  while(*p && *p == *q)
 1ca:	0f b6 02             	movzbl (%edx),%eax
 1cd:	84 c0                	test   %al,%al
 1cf:	75 17                	jne    1e8 <strcmp+0x28>
 1d1:	eb 3a                	jmp    20d <strcmp+0x4d>
 1d3:	8d 74 26 00          	lea    0x0(%esi,%eiz,1),%esi
 1d7:	90                   	nop
 1d8:	0f b6 42 01          	movzbl 0x1(%edx),%eax
    p++, q++;
 1dc:	83 c2 01             	add    $0x1,%edx
 1df:	8d 59 01             	lea    0x1(%ecx),%ebx
  while(*p && *p == *q)
 1e2:	84 c0                	test   %al,%al
 1e4:	74 1a                	je     200 <strcmp+0x40>
    p++, q++;
 1e6:	89 d9                	mov    %ebx,%ecx
  while(*p && *p == *q)
 1e8:	0f b6 19             	movzbl (%ecx),%ebx
 1eb:	38 c3                	cmp    %al,%bl
 1ed:	74 e9                	je     1d8 <strcmp+0x18>
  return (uchar)*p - (uchar)*q;
 1ef:	29 d8                	sub    %ebx,%eax
}
 1f1:	8b 5d fc             	mov    -0x4(%ebp),%ebx
 1f4:	c9                   	leave  
 1f5:	c3                   	ret    
 1f6:	8d b4 26 00 00 00 00 	lea    0x0(%esi,%eiz,1),%esi
 1fd:	8d 76 00             	lea    0x0(%esi),%esi
  return (uchar)*p - (uchar)*q;
 200:	0f b6 59 01          	movzbl 0x1(%ecx),%ebx
 204:	31 c0                	xor    %eax,%eax
 206:	29 d8                	sub    %ebx,%eax
}
 208:	8b 5d fc             	mov    -0x4(%ebp),%ebx
 20b:	c9                   	leave  
 20c:	c3                   	ret    
  return (uchar)*p - (uchar)*q;
 20d:	0f b6 19             	movzbl (%ecx),%ebx
 210:	31 c0                	xor    %eax,%eax
 212:	eb db                	jmp    1ef <strcmp+0x2f>
 214:	8d b4 26 00 00 00 00 	lea    0x0(%esi,%eiz,1),%esi
 21b:	8d 74 26 00          	lea    0x0(%esi,%eiz,1),%esi
 21f:	90                   	nop

00000220 <strlen>:

uint
strlen(const char *s)
{
 220:	55                   	push   %ebp
 221:	89 e5                	mov    %esp,%ebp
 223:	8b 55 08             	mov    0x8(%ebp),%edx
  int n;

  for(n = 0; s[n]; n++)
 226:	80 3a 00             	cmpb   $0x0,(%edx)
 229:	74 15                	je     240 <strlen+0x20>
 22b:	31 c0                	xor    %eax,%eax
 22d:	8d 76 00             	lea    0x0(%esi),%esi
 230:	83 c0 01             	add    $0x1,%eax
 233:	80 3c 02 00          	cmpb   $0x0,(%edx,%eax,1)
 237:	89 c1                	mov    %eax,%ecx
 239:	75 f5                	jne    230 <strlen+0x10>
    ;
  return n;
}
 23b:	89 c8                	mov    %ecx,%eax
 23d:	5d                   	pop    %ebp
 23e:	c3                   	ret    
 23f:	90                   	nop
  for(n = 0; s[n]; n++)
 240:	31 c9                	xor    %ecx,%ecx
}
 242:	5d                   	pop    %ebp
 243:	89 c8                	mov    %ecx,%eax
 245:	c3                   	ret    
 246:	8d b4 26 00 00 00 00 	lea    0x0(%esi,%eiz,1),%esi
 24d:	8d 76 00             	lea    0x0(%esi),%esi

00000250 <memset>:

void*
memset(void *dst, int c, uint n)
{
 250:	55                   	push   %ebp
 251:	89 e5                	mov    %esp,%ebp
 253:	57                   	push   %edi
 254:	8b 55 08             	mov    0x8(%ebp),%edx
}

static inline void
stosb(void *addr, int data, int cnt)
{
  asm volatile("cld; rep stosb" :
 257:	8b 4d 10             	mov    0x10(%ebp),%ecx
 25a:	8b 45 0c             	mov    0xc(%ebp),%eax
 25d:	89 d7                	mov    %edx,%edi
 25f:	fc                   	cld    
 260:	f3 aa                	rep stos %al,%es:(%edi)
  stosb(dst, c, n);
  return dst;
}
 262:	8b 7d fc             	mov    -0x4(%ebp),%edi
 265:	89 d0                	mov    %edx,%eax
 267:	c9                   	leave  
 268:	c3                   	ret    
 269:	8d b4 26 00 00 00 00 	lea    0x0(%esi,%eiz,1),%esi

00000270 <strchr>:

char*
strchr(const char *s, char c)
{
 270:	55                   	push   %ebp
 271:	89 e5                	mov    %esp,%ebp
 273:	8b 45 08             	mov    0x8(%ebp),%eax
 276:	0f b6 4d 0c          	movzbl 0xc(%ebp),%ecx
  for(; *s; s++)
 27a:	0f b6 10             	movzbl (%eax),%edx
 27d:	84 d2                	test   %dl,%dl
 27f:	75 12                	jne    293 <strchr+0x23>
 281:	eb 1d                	jmp    2a0 <strchr+0x30>
 283:	8d 74 26 00          	lea    0x0(%esi,%eiz,1),%esi
 287:	90                   	nop
 288:	0f b6 50 01          	movzbl 0x1(%eax),%edx
 28c:	83 c0 01             	add    $0x1,%eax
 28f:	84 d2                	test   %dl,%dl
 291:	74 0d                	je     2a0 <strchr+0x30>
    if(*s == c)
 293:	38 d1                	cmp    %dl,%cl
 295:	75 f1                	jne    288 <strchr+0x18>
      return (char*)s;
  return 0;
}
 297:	5d                   	pop    %ebp
 298:	c3                   	ret    
 299:	8d b4 26 00 00 00 00 	lea    0x0(%esi,%eiz,1),%esi
  return 0;
 2a0:	31 c0                	xor    %eax,%eax
}
 2a2:	5d                   	pop    %ebp
 2a3:	c3                   	ret    
 2a4:	8d b4 26 00 00 00 00 	lea    0x0(%esi,%eiz,1),%esi
 2ab:	8d 74 26 00          	lea    0x0(%esi,%eiz,1),%esi
 2af:	90                   	nop

000002b0 <gets>:

char*
gets(char *buf, int max)
{
 2b0:	55                   	push   %ebp
 2b1:	89 e5                	mov    %esp,%ebp
 2b3:	57                   	push   %edi
 2b4:	56                   	push   %esi
  int i, cc;
  char c;

  for(i=0; i+1 < max; ){
    cc = read(0, &c, 1);
 2b5:	8d 7d e7             	lea    -0x19(%ebp),%edi
{
 2b8:	53                   	push   %ebx
  for(i=0; i+1 < max; ){
 2b9:	31 db                	xor    %ebx,%ebx
{
 2bb:	83 ec 1c             	sub    $0x1c,%esp
  for(i=0; i+1 < max; ){
 2be:	eb 27                	jmp    2e7 <gets+0x37>
    cc = read(0, &c, 1);
 2c0:	83 ec 04             	sub    $0x4,%esp
 2c3:	6a 01                	push   $0x1
 2c5:	57                   	push   %edi
 2c6:	6a 00                	push   $0x0
 2c8:	e8 2e 01 00 00       	call   3fb <read>
    if(cc < 1)
 2cd:	83 c4 10             	add    $0x10,%esp
 2d0:	85 c0                	test   %eax,%eax
 2d2:	7e 1d                	jle    2f1 <gets+0x41>
      break;
    buf[i++] = c;
 2d4:	0f b6 45 e7          	movzbl -0x19(%ebp),%eax
 2d8:	8b 55 08             	mov    0x8(%ebp),%edx
 2db:	88 44 1a ff          	mov    %al,-0x1(%edx,%ebx,1)
    if(c == '\n' || c == '\r')
 2df:	3c 0a                	cmp    $0xa,%al
 2e1:	74 1d                	je     300 <gets+0x50>
 2e3:	3c 0d                	cmp    $0xd,%al
 2e5:	74 19                	je     300 <gets+0x50>
  for(i=0; i+1 < max; ){
 2e7:	89 de                	mov    %ebx,%esi
 2e9:	83 c3 01             	add    $0x1,%ebx
 2ec:	3b 5d 0c             	cmp    0xc(%ebp),%ebx
 2ef:	7c cf                	jl     2c0 <gets+0x10>
      break;
  }
  buf[i] = '\0';
 2f1:	8b 45 08             	mov    0x8(%ebp),%eax
 2f4:	c6 04 30 00          	movb   $0x0,(%eax,%esi,1)
  return buf;
}
 2f8:	8d 65 f4             	lea    -0xc(%ebp),%esp
 2fb:	5b                   	pop    %ebx
 2fc:	5e                   	pop    %esi
 2fd:	5f                   	pop    %edi
 2fe:	5d                   	pop    %ebp
 2ff:	c3                   	ret    
  buf[i] = '\0';
 300:	8b 45 08             	mov    0x8(%ebp),%eax
 303:	89 de                	mov    %ebx,%esi
 305:	c6 04 30 00          	movb   $0x0,(%eax,%esi,1)
}
 309:	8d 65 f4             	lea    -0xc(%ebp),%esp
 30c:	5b                   	pop    %ebx
 30d:	5e                   	pop    %esi
 30e:	5f                   	pop    %edi
 30f:	5d                   	pop    %ebp
 310:	c3                   	ret    
 311:	8d b4 26 00 00 00 00 	lea    0x0(%esi,%eiz,1),%esi
 318:	8d b4 26 00 00 00 00 	lea    0x0(%esi,%eiz,1),%esi
 31f:	90                   	nop

00000320 <stat>:

int
stat(const char *n, struct stat *st)
{
 320:	55                   	push   %ebp
 321:	89 e5                	mov    %esp,%ebp
 323:	56                   	push   %esi
 324:	53                   	push   %ebx
  int fd;
  int r;

  fd = open(n, O_RDONLY);
 325:	83 ec 08             	sub    $0x8,%esp
 328:	6a 00                	push   $0x0
 32a:	ff 75 08             	push   0x8(%ebp)
 32d:	e8 f1 00 00 00       	call   423 <open>
  if(fd < 0)
 332:	83 c4 10             	add    $0x10,%esp
 335:	85 c0                	test   %eax,%eax
 337:	78 27                	js     360 <stat+0x40>
    return -1;
  r = fstat(fd, st);
 339:	83 ec 08             	sub    $0x8,%esp
 33c:	ff 75 0c             	push   0xc(%ebp)
 33f:	89 c3                	mov    %eax,%ebx
 341:	50                   	push   %eax
 342:	e8 f4 00 00 00       	call   43b <fstat>
  close(fd);
 347:	89 1c 24             	mov    %ebx,(%esp)
  r = fstat(fd, st);
 34a:	89 c6                	mov    %eax,%esi
  close(fd);
 34c:	e8 ba 00 00 00       	call   40b <close>
  return r;
 351:	83 c4 10             	add    $0x10,%esp
}
 354:	8d 65 f8             	lea    -0x8(%ebp),%esp
 357:	89 f0                	mov    %esi,%eax
 359:	5b                   	pop    %ebx
 35a:	5e                   	pop    %esi
 35b:	5d                   	pop    %ebp
 35c:	c3                   	ret    
 35d:	8d 76 00             	lea    0x0(%esi),%esi
    return -1;
 360:	be ff ff ff ff       	mov    $0xffffffff,%esi
 365:	eb ed                	jmp    354 <stat+0x34>
 367:	8d b4 26 00 00 00 00 	lea    0x0(%esi,%eiz,1),%esi
 36e:	66 90                	xchg   %ax,%ax

00000370 <atoi>:

int
atoi(const char *s)
{
 370:	55                   	push   %ebp
 371:	89 e5                	mov    %esp,%ebp
 373:	53                   	push   %ebx
 374:	8b 55 08             	mov    0x8(%ebp),%edx
  int n;

  n = 0;
  while('0' <= *s && *s <= '9')
 377:	0f be 02             	movsbl (%edx),%eax
 37a:	8d 48 d0             	lea    -0x30(%eax),%ecx
 37d:	80 f9 09             	cmp    $0x9,%cl
  n = 0;
 380:	b9 00 00 00 00       	mov    $0x0,%ecx
  while('0' <= *s && *s <= '9')
 385:	77 1e                	ja     3a5 <atoi+0x35>
 387:	8d b4 26 00 00 00 00 	lea    0x0(%esi,%eiz,1),%esi
 38e:	66 90                	xchg   %ax,%ax
    n = n*10 + *s++ - '0';
 390:	83 c2 01             	add    $0x1,%edx
 393:	8d 0c 89             	lea    (%ecx,%ecx,4),%ecx
 396:	8d 4c 48 d0          	lea    -0x30(%eax,%ecx,2),%ecx
  while('0' <= *s && *s <= '9')
 39a:	0f be 02             	movsbl (%edx),%eax
 39d:	8d 58 d0             	lea    -0x30(%eax),%ebx
 3a0:	80 fb 09             	cmp    $0x9,%bl
 3a3:	76 eb                	jbe    390 <atoi+0x20>
  return n;
}
 3a5:	8b 5d fc             	mov    -0x4(%ebp),%ebx
 3a8:	89 c8                	mov    %ecx,%eax
 3aa:	c9                   	leave  
 3ab:	c3                   	ret    
 3ac:	8d 74 26 00          	lea    0x0(%esi,%eiz,1),%esi

000003b0 <memmove>:

void*
memmove(void *vdst, const void *vsrc, int n)
{
 3b0:	55                   	push   %ebp
 3b1:	89 e5                	mov    %esp,%ebp
 3b3:	57                   	push   %edi
 3b4:	8b 45 10             	mov    0x10(%ebp),%eax
 3b7:	8b 55 08             	mov    0x8(%ebp),%edx
 3ba:	56                   	push   %esi
 3bb:	8b 75 0c             	mov    0xc(%ebp),%esi
  char *dst;
  const char *src;

  dst = vdst;
  src = vsrc;
  while(n-- > 0)
 3be:	85 c0                	test   %eax,%eax
 3c0:	7e 13                	jle    3d5 <memmove+0x25>
 3c2:	01 d0                	add    %edx,%eax
  dst = vdst;
 3c4:	89 d7                	mov    %edx,%edi
 3c6:	8d b4 26 00 00 00 00 	lea    0x0(%esi,%eiz,1),%esi
 3cd:	8d 76 00             	lea    0x0(%esi),%esi
    *dst++ = *src++;
 3d0:	a4                   	movsb  %ds:(%esi),%es:(%edi)
  while(n-- > 0)
 3d1:	39 f8                	cmp    %edi,%eax
 3d3:	75 fb                	jne    3d0 <memmove+0x20>
  return vdst;
}
 3d5:	5e                   	pop    %esi
 3d6:	89 d0                	mov    %edx,%eax
 3d8:	5f                   	pop    %edi
 3d9:	5d                   	pop    %ebp
 3da:	c3                   	ret    

000003db <fork>:
  name: \
    movl $SYS_ ## name, %eax; \
    int $T_SYSCALL; \
    ret

SYSCALL(fork)
 3db:	b8 01 00 00 00       	mov    $0x1,%eax
 3e0:	cd 40                	int    $0x40
 3e2:	c3                   	ret    

000003e3 <exit>:
SYSCALL(exit)
 3e3:	b8 02 00 00 00       	mov    $0x2,%eax
 3e8:	cd 40                	int    $0x40
 3ea:	c3                   	ret    

000003eb <wait>:
SYSCALL(wait)
 3eb:	b8 03 00 00 00       	mov    $0x3,%eax
 3f0:	cd 40                	int    $0x40
 3f2:	c3                   	ret    

000003f3 <pipe>:
SYSCALL(pipe)
 3f3:	b8 04 00 00 00       	mov    $0x4,%eax
 3f8:	cd 40                	int    $0x40
 3fa:	c3                   	ret    

000003fb <read>:
SYSCALL(read)
 3fb:	b8 05 00 00 00       	mov    $0x5,%eax
 400:	cd 40                	int    $0x40
 402:	c3                   	ret    

00000403 <write>:
SYSCALL(write)
 403:	b8 10 00 00 00       	mov    $0x10,%eax
 408:	cd 40                	int    $0x40
 40a:	c3                   	ret    

0000040b <close>:
SYSCALL(close)
 40b:	b8 15 00 00 00       	mov    $0x15,%eax
 410:	cd 40                	int    $0x40
 412:	c3                   	ret    

00000413 <kill>:
SYSCALL(kill)
 413:	b8 06 00 00 00       	mov    $0x6,%eax
 418:	cd 40                	int    $0x40
 41a:	c3                   	ret    

0000041b <exec>:
SYSCALL(exec)
 41b:	b8 07 00 00 00       	mov    $0x7,%eax
 420:	cd 40                	int    $0x40
 422:	c3                   	ret    

00000423 <open>:
SYSCALL(open)
 423:	b8 0f 00 00 00       	mov    $0xf,%eax
 428:	cd 40                	int    $0x40
 42a:	c3                   	ret    

0000042b <mknod>:
SYSCALL(mknod)
 42b:	b8 11 00 00 00       	mov    $0x11,%eax
 430:	cd 40                	int    $0x40
 432:	c3                   	ret    

00000433 <unlink>:
SYSCALL(unlink)
 433:	b8 12 00 00 00       	mov    $0x12,%eax
 438:	cd 40                	int    $0x40
 43a:	c3                   	ret    

0000043b <fstat>:
SYSCALL(fstat)
 43b:	b8 08 00 00 00       	mov    $0x8,%eax
 440:	cd 40                	int    $0x40
 442:	c3                   	ret    

00000443 <link>:
SYSCALL(link)
 443:	b8 13 00 00 00       	mov    $0x13,%eax
 448:	cd 40                	int    $0x40
 44a:	c3                   	ret    

0000044b <mkdir>:
SYSCALL(mkdir)
 44b:	b8 14 00 00 00       	mov    $0x14,%eax
 450:	cd 40                	int    $0x40
 452:	c3                   	ret    

00000453 <chdir>:
SYSCALL(chdir)
 453:	b8 09 00 00 00       	mov    $0x9,%eax
 458:	cd 40                	int    $0x40
 45a:	c3                   	ret    

0000045b <dup>:
SYSCALL(dup)
 45b:	b8 0a 00 00 00       	mov    $0xa,%eax
 460:	cd 40                	int    $0x40
 462:	c3                   	ret    

00000463 <getpid>:
SYSCALL(getpid)
 463:	b8 0b 00 00 00       	mov    $0xb,%eax
 468:	cd 40                	int    $0x40
 46a:	c3                   	ret    

0000046b <sbrk>:
SYSCALL(sbrk)
 46b:	b8 0c 00 00 00       	mov    $0xc,%eax
 470:	cd 40                	int    $0x40
 472:	c3                   	ret    

00000473 <sleep>:
SYSCALL(sleep)
 473:	b8 0d 00 00 00       	mov    $0xd,%eax
 478:	cd 40                	int    $0x40
 47a:	c3                   	ret    

0000047b <uptime>:
SYSCALL(uptime)
 47b:	b8 0e 00 00 00       	mov    $0xe,%eax
 480:	cd 40                	int    $0x40
 482:	c3                   	ret    

00000483 <hello>:
SYSCALL(hello)
 483:	b8 16 00 00 00       	mov    $0x16,%eax
 488:	cd 40                	int    $0x40
 48a:	c3                   	ret    

0000048b <helloYou>:
SYSCALL(helloYou)
 48b:	b8 17 00 00 00       	mov    $0x17,%eax
 490:	cd 40                	int    $0x40
 492:	c3                   	ret    

00000493 <getppid>:
SYSCALL(getppid)
 493:	b8 18 00 00 00       	mov    $0x18,%eax
 498:	cd 40                	int    $0x40
 49a:	c3                   	ret    

0000049b <get_siblings_info>:
SYSCALL(get_siblings_info)
 49b:	b8 19 00 00 00       	mov    $0x19,%eax
 4a0:	cd 40                	int    $0x40
 4a2:	c3                   	ret    

000004a3 <signalProcess>:
SYSCALL(signalProcess)
 4a3:	b8 1a 00 00 00       	mov    $0x1a,%eax
 4a8:	cd 40                	int    $0x40
 4aa:	c3                   	ret    

000004ab <numvp>:
SYSCALL(numvp)
 4ab:	b8 1b 00 00 00       	mov    $0x1b,%eax
 4b0:	cd 40                	int    $0x40
 4b2:	c3                   	ret    

000004b3 <numpp>:
SYSCALL(numpp)
 4b3:	b8 1c 00 00 00       	mov    $0x1c,%eax
 4b8:	cd 40                	int    $0x40
 4ba:	c3                   	ret    

000004bb <init_counter>:

SYSCALL(init_counter)
 4bb:	b8 1d 00 00 00       	mov    $0x1d,%eax
 4c0:	cd 40                	int    $0x40
 4c2:	c3                   	ret    

000004c3 <update_cnt>:
SYSCALL(update_cnt)
 4c3:	b8 1e 00 00 00       	mov    $0x1e,%eax
 4c8:	cd 40                	int    $0x40
 4ca:	c3                   	ret    

000004cb <display_count>:
SYSCALL(display_count)
 4cb:	b8 1f 00 00 00       	mov    $0x1f,%eax
 4d0:	cd 40                	int    $0x40
 4d2:	c3                   	ret    

000004d3 <init_counter_1>:
SYSCALL(init_counter_1)
 4d3:	b8 20 00 00 00       	mov    $0x20,%eax
 4d8:	cd 40                	int    $0x40
 4da:	c3                   	ret    

000004db <update_cnt_1>:
SYSCALL(update_cnt_1)
 4db:	b8 21 00 00 00       	mov    $0x21,%eax
 4e0:	cd 40                	int    $0x40
 4e2:	c3                   	ret    

000004e3 <display_count_1>:
SYSCALL(display_count_1)
 4e3:	b8 22 00 00 00       	mov    $0x22,%eax
 4e8:	cd 40                	int    $0x40
 4ea:	c3                   	ret    

000004eb <init_counter_2>:
SYSCALL(init_counter_2)
 4eb:	b8 23 00 00 00       	mov    $0x23,%eax
 4f0:	cd 40                	int    $0x40
 4f2:	c3                   	ret    

000004f3 <update_cnt_2>:
SYSCALL(update_cnt_2)
 4f3:	b8 24 00 00 00       	mov    $0x24,%eax
 4f8:	cd 40                	int    $0x40
 4fa:	c3                   	ret    

000004fb <display_count_2>:
SYSCALL(display_count_2)
 4fb:	b8 25 00 00 00       	mov    $0x25,%eax
 500:	cd 40                	int    $0x40
 502:	c3                   	ret    

00000503 <init_mylock>:
SYSCALL(init_mylock)
 503:	b8 26 00 00 00       	mov    $0x26,%eax
 508:	cd 40                	int    $0x40
 50a:	c3                   	ret    

0000050b <acquire_mylock>:
SYSCALL(acquire_mylock)
 50b:	b8 27 00 00 00       	mov    $0x27,%eax
 510:	cd 40                	int    $0x40
 512:	c3                   	ret    

00000513 <release_mylock>:
SYSCALL(release_mylock)
 513:	b8 28 00 00 00       	mov    $0x28,%eax
 518:	cd 40                	int    $0x40
 51a:	c3                   	ret    

0000051b <holding_mylock>:
 51b:	b8 29 00 00 00       	mov    $0x29,%eax
 520:	cd 40                	int    $0x40
 522:	c3                   	ret    
 523:	66 90                	xchg   %ax,%ax
 525:	66 90                	xchg   %ax,%ax
 527:	66 90                	xchg   %ax,%ax
 529:	66 90                	xchg   %ax,%ax
 52b:	66 90                	xchg   %ax,%ax
 52d:	66 90                	xchg   %ax,%ax
 52f:	90                   	nop

00000530 <printint>:
  write(fd, &c, 1);
}

static void
printint(int fd, int xx, int base, int sgn)
{
 530:	55                   	push   %ebp
 531:	89 e5                	mov    %esp,%ebp
 533:	57                   	push   %edi
 534:	56                   	push   %esi
 535:	53                   	push   %ebx
 536:	83 ec 3c             	sub    $0x3c,%esp
 539:	89 4d c4             	mov    %ecx,-0x3c(%ebp)
  uint x;

  neg = 0;
  if(sgn && xx < 0){
    neg = 1;
    x = -xx;
 53c:	89 d1                	mov    %edx,%ecx
{
 53e:	89 45 b8             	mov    %eax,-0x48(%ebp)
  if(sgn && xx < 0){
 541:	85 d2                	test   %edx,%edx
 543:	0f 89 7f 00 00 00    	jns    5c8 <printint+0x98>
 549:	f6 45 08 01          	testb  $0x1,0x8(%ebp)
 54d:	74 79                	je     5c8 <printint+0x98>
    neg = 1;
 54f:	c7 45 bc 01 00 00 00 	movl   $0x1,-0x44(%ebp)
    x = -xx;
 556:	f7 d9                	neg    %ecx
  } else {
    x = xx;
  }

  i = 0;
 558:	31 db                	xor    %ebx,%ebx
 55a:	8d 75 d7             	lea    -0x29(%ebp),%esi
 55d:	8d 76 00             	lea    0x0(%esi),%esi
  do{
    buf[i++] = digits[x % base];
 560:	89 c8                	mov    %ecx,%eax
 562:	31 d2                	xor    %edx,%edx
 564:	89 cf                	mov    %ecx,%edi
 566:	f7 75 c4             	divl   -0x3c(%ebp)
 569:	0f b6 92 74 09 00 00 	movzbl 0x974(%edx),%edx
 570:	89 45 c0             	mov    %eax,-0x40(%ebp)
 573:	89 d8                	mov    %ebx,%eax
 575:	8d 5b 01             	lea    0x1(%ebx),%ebx
  }while((x /= base) != 0);
 578:	8b 4d c0             	mov    -0x40(%ebp),%ecx
    buf[i++] = digits[x % base];
 57b:	88 14 1e             	mov    %dl,(%esi,%ebx,1)
  }while((x /= base) != 0);
 57e:	39 7d c4             	cmp    %edi,-0x3c(%ebp)
 581:	76 dd                	jbe    560 <printint+0x30>
  if(neg)
 583:	8b 4d bc             	mov    -0x44(%ebp),%ecx
 586:	85 c9                	test   %ecx,%ecx
 588:	74 0c                	je     596 <printint+0x66>
    buf[i++] = '-';
 58a:	c6 44 1d d8 2d       	movb   $0x2d,-0x28(%ebp,%ebx,1)
    buf[i++] = digits[x % base];
 58f:	89 d8                	mov    %ebx,%eax
    buf[i++] = '-';
 591:	ba 2d 00 00 00       	mov    $0x2d,%edx

  while(--i >= 0)
 596:	8b 7d b8             	mov    -0x48(%ebp),%edi
 599:	8d 5c 05 d7          	lea    -0x29(%ebp,%eax,1),%ebx
 59d:	eb 07                	jmp    5a6 <printint+0x76>
 59f:	90                   	nop
    putc(fd, buf[i]);
 5a0:	0f b6 13             	movzbl (%ebx),%edx
 5a3:	83 eb 01             	sub    $0x1,%ebx
  write(fd, &c, 1);
 5a6:	83 ec 04             	sub    $0x4,%esp
 5a9:	88 55 d7             	mov    %dl,-0x29(%ebp)
 5ac:	6a 01                	push   $0x1
 5ae:	56                   	push   %esi
 5af:	57                   	push   %edi
 5b0:	e8 4e fe ff ff       	call   403 <write>
  while(--i >= 0)
 5b5:	83 c4 10             	add    $0x10,%esp
 5b8:	39 de                	cmp    %ebx,%esi
 5ba:	75 e4                	jne    5a0 <printint+0x70>
}
 5bc:	8d 65 f4             	lea    -0xc(%ebp),%esp
 5bf:	5b                   	pop    %ebx
 5c0:	5e                   	pop    %esi
 5c1:	5f                   	pop    %edi
 5c2:	5d                   	pop    %ebp
 5c3:	c3                   	ret    
 5c4:	8d 74 26 00          	lea    0x0(%esi,%eiz,1),%esi
  neg = 0;
 5c8:	c7 45 bc 00 00 00 00 	movl   $0x0,-0x44(%ebp)
 5cf:	eb 87                	jmp    558 <printint+0x28>
 5d1:	8d b4 26 00 00 00 00 	lea    0x0(%esi,%eiz,1),%esi
 5d8:	8d b4 26 00 00 00 00 	lea    0x0(%esi,%eiz,1),%esi
 5df:	90                   	nop

000005e0 <printf>:

// Print to the given fd. Only understands %d, %x, %p, %s.
void
printf(int fd, const char *fmt, ...)
{
 5e0:	55                   	push   %ebp
 5e1:	89 e5                	mov    %esp,%ebp
 5e3:	57                   	push   %edi
 5e4:	56                   	push   %esi
 5e5:	53                   	push   %ebx
 5e6:	83 ec 2c             	sub    $0x2c,%esp
  int c, i, state;
  uint *ap;

  state = 0;
  ap = (uint*)(void*)&fmt + 1;
  for(i = 0; fmt[i]; i++){
 5e9:	8b 5d 0c             	mov    0xc(%ebp),%ebx
{
 5ec:	8b 75 08             	mov    0x8(%ebp),%esi
  for(i = 0; fmt[i]; i++){
 5ef:	0f b6 13             	movzbl (%ebx),%edx
 5f2:	84 d2                	test   %dl,%dl
 5f4:	74 6a                	je     660 <printf+0x80>
  ap = (uint*)(void*)&fmt + 1;
 5f6:	8d 45 10             	lea    0x10(%ebp),%eax
 5f9:	83 c3 01             	add    $0x1,%ebx
  write(fd, &c, 1);
 5fc:	8d 7d e7             	lea    -0x19(%ebp),%edi
  state = 0;
 5ff:	31 c9                	xor    %ecx,%ecx
  ap = (uint*)(void*)&fmt + 1;
 601:	89 45 d0             	mov    %eax,-0x30(%ebp)
 604:	eb 36                	jmp    63c <printf+0x5c>
 606:	8d b4 26 00 00 00 00 	lea    0x0(%esi,%eiz,1),%esi
 60d:	8d 76 00             	lea    0x0(%esi),%esi
 610:	89 4d d4             	mov    %ecx,-0x2c(%ebp)
    c = fmt[i] & 0xff;
    if(state == 0){
      if(c == '%'){
        state = '%';
 613:	b9 25 00 00 00       	mov    $0x25,%ecx
      if(c == '%'){
 618:	83 f8 25             	cmp    $0x25,%eax
 61b:	74 15                	je     632 <printf+0x52>
  write(fd, &c, 1);
 61d:	83 ec 04             	sub    $0x4,%esp
 620:	88 55 e7             	mov    %dl,-0x19(%ebp)
 623:	6a 01                	push   $0x1
 625:	57                   	push   %edi
 626:	56                   	push   %esi
 627:	e8 d7 fd ff ff       	call   403 <write>
 62c:	8b 4d d4             	mov    -0x2c(%ebp),%ecx
      } else {
        putc(fd, c);
 62f:	83 c4 10             	add    $0x10,%esp
  for(i = 0; fmt[i]; i++){
 632:	0f b6 13             	movzbl (%ebx),%edx
 635:	83 c3 01             	add    $0x1,%ebx
 638:	84 d2                	test   %dl,%dl
 63a:	74 24                	je     660 <printf+0x80>
    c = fmt[i] & 0xff;
 63c:	0f b6 c2             	movzbl %dl,%eax
    if(state == 0){
 63f:	85 c9                	test   %ecx,%ecx
 641:	74 cd                	je     610 <printf+0x30>
      }
    } else if(state == '%'){
 643:	83 f9 25             	cmp    $0x25,%ecx
 646:	75 ea                	jne    632 <printf+0x52>
      if(c == 'd'){
 648:	83 f8 25             	cmp    $0x25,%eax
 64b:	0f 84 07 01 00 00    	je     758 <printf+0x178>
 651:	83 e8 63             	sub    $0x63,%eax
 654:	83 f8 15             	cmp    $0x15,%eax
 657:	77 17                	ja     670 <printf+0x90>
 659:	ff 24 85 1c 09 00 00 	jmp    *0x91c(,%eax,4)
        putc(fd, c);
      }
      state = 0;
    }
  }
}
 660:	8d 65 f4             	lea    -0xc(%ebp),%esp
 663:	5b                   	pop    %ebx
 664:	5e                   	pop    %esi
 665:	5f                   	pop    %edi
 666:	5d                   	pop    %ebp
 667:	c3                   	ret    
 668:	8d b4 26 00 00 00 00 	lea    0x0(%esi,%eiz,1),%esi
 66f:	90                   	nop
  write(fd, &c, 1);
 670:	83 ec 04             	sub    $0x4,%esp
 673:	88 55 d4             	mov    %dl,-0x2c(%ebp)
 676:	6a 01                	push   $0x1
 678:	57                   	push   %edi
 679:	56                   	push   %esi
 67a:	c6 45 e7 25          	movb   $0x25,-0x19(%ebp)
 67e:	e8 80 fd ff ff       	call   403 <write>
        putc(fd, c);
 683:	0f b6 55 d4          	movzbl -0x2c(%ebp),%edx
  write(fd, &c, 1);
 687:	83 c4 0c             	add    $0xc,%esp
 68a:	88 55 e7             	mov    %dl,-0x19(%ebp)
 68d:	6a 01                	push   $0x1
 68f:	57                   	push   %edi
 690:	56                   	push   %esi
 691:	e8 6d fd ff ff       	call   403 <write>
        putc(fd, c);
 696:	83 c4 10             	add    $0x10,%esp
      state = 0;
 699:	31 c9                	xor    %ecx,%ecx
 69b:	eb 95                	jmp    632 <printf+0x52>
 69d:	8d 76 00             	lea    0x0(%esi),%esi
        printint(fd, *ap, 16, 0);
 6a0:	83 ec 0c             	sub    $0xc,%esp
 6a3:	b9 10 00 00 00       	mov    $0x10,%ecx
 6a8:	6a 00                	push   $0x0
 6aa:	8b 45 d0             	mov    -0x30(%ebp),%eax
 6ad:	8b 10                	mov    (%eax),%edx
 6af:	89 f0                	mov    %esi,%eax
 6b1:	e8 7a fe ff ff       	call   530 <printint>
        ap++;
 6b6:	83 45 d0 04          	addl   $0x4,-0x30(%ebp)
 6ba:	83 c4 10             	add    $0x10,%esp
      state = 0;
 6bd:	31 c9                	xor    %ecx,%ecx
 6bf:	e9 6e ff ff ff       	jmp    632 <printf+0x52>
 6c4:	8d 74 26 00          	lea    0x0(%esi,%eiz,1),%esi
        s = (char*)*ap;
 6c8:	8b 45 d0             	mov    -0x30(%ebp),%eax
 6cb:	8b 10                	mov    (%eax),%edx
        ap++;
 6cd:	83 c0 04             	add    $0x4,%eax
 6d0:	89 45 d0             	mov    %eax,-0x30(%ebp)
        if(s == 0)
 6d3:	85 d2                	test   %edx,%edx
 6d5:	0f 84 8d 00 00 00    	je     768 <printf+0x188>
        while(*s != 0){
 6db:	0f b6 02             	movzbl (%edx),%eax
      state = 0;
 6de:	31 c9                	xor    %ecx,%ecx
        while(*s != 0){
 6e0:	84 c0                	test   %al,%al
 6e2:	0f 84 4a ff ff ff    	je     632 <printf+0x52>
 6e8:	89 5d d4             	mov    %ebx,-0x2c(%ebp)
 6eb:	89 d3                	mov    %edx,%ebx
 6ed:	8d 76 00             	lea    0x0(%esi),%esi
  write(fd, &c, 1);
 6f0:	83 ec 04             	sub    $0x4,%esp
          s++;
 6f3:	83 c3 01             	add    $0x1,%ebx
 6f6:	88 45 e7             	mov    %al,-0x19(%ebp)
  write(fd, &c, 1);
 6f9:	6a 01                	push   $0x1
 6fb:	57                   	push   %edi
 6fc:	56                   	push   %esi
 6fd:	e8 01 fd ff ff       	call   403 <write>
        while(*s != 0){
 702:	0f b6 03             	movzbl (%ebx),%eax
 705:	83 c4 10             	add    $0x10,%esp
 708:	84 c0                	test   %al,%al
 70a:	75 e4                	jne    6f0 <printf+0x110>
      state = 0;
 70c:	8b 5d d4             	mov    -0x2c(%ebp),%ebx
 70f:	31 c9                	xor    %ecx,%ecx
 711:	e9 1c ff ff ff       	jmp    632 <printf+0x52>
 716:	8d b4 26 00 00 00 00 	lea    0x0(%esi,%eiz,1),%esi
 71d:	8d 76 00             	lea    0x0(%esi),%esi
        printint(fd, *ap, 10, 1);
 720:	83 ec 0c             	sub    $0xc,%esp
 723:	b9 0a 00 00 00       	mov    $0xa,%ecx
 728:	6a 01                	push   $0x1
 72a:	e9 7b ff ff ff       	jmp    6aa <printf+0xca>
 72f:	90                   	nop
        putc(fd, *ap);
 730:	8b 45 d0             	mov    -0x30(%ebp),%eax
  write(fd, &c, 1);
 733:	83 ec 04             	sub    $0x4,%esp
        putc(fd, *ap);
 736:	8b 00                	mov    (%eax),%eax
  write(fd, &c, 1);
 738:	6a 01                	push   $0x1
 73a:	57                   	push   %edi
 73b:	56                   	push   %esi
        putc(fd, *ap);
 73c:	88 45 e7             	mov    %al,-0x19(%ebp)
  write(fd, &c, 1);
 73f:	e8 bf fc ff ff       	call   403 <write>
        ap++;
 744:	83 45 d0 04          	addl   $0x4,-0x30(%ebp)
 748:	83 c4 10             	add    $0x10,%esp
      state = 0;
 74b:	31 c9                	xor    %ecx,%ecx
 74d:	e9 e0 fe ff ff       	jmp    632 <printf+0x52>
 752:	8d b6 00 00 00 00    	lea    0x0(%esi),%esi
        putc(fd, c);
 758:	88 55 e7             	mov    %dl,-0x19(%ebp)
  write(fd, &c, 1);
 75b:	83 ec 04             	sub    $0x4,%esp
 75e:	e9 2a ff ff ff       	jmp    68d <printf+0xad>
 763:	8d 74 26 00          	lea    0x0(%esi,%eiz,1),%esi
 767:	90                   	nop
          s = "(null)";
 768:	ba 14 09 00 00       	mov    $0x914,%edx
        while(*s != 0){
 76d:	89 5d d4             	mov    %ebx,-0x2c(%ebp)
 770:	b8 28 00 00 00       	mov    $0x28,%eax
 775:	89 d3                	mov    %edx,%ebx
 777:	e9 74 ff ff ff       	jmp    6f0 <printf+0x110>
 77c:	66 90                	xchg   %ax,%ax
 77e:	66 90                	xchg   %ax,%ax

00000780 <free>:
static Header base;
static Header *freep;

void
free(void *ap)
{
 780:	55                   	push   %ebp
  Header *bp, *p;

  bp = (Header*)ap - 1;
  for(p = freep; !(bp > p && bp < p->s.ptr); p = p->s.ptr)
 781:	a1 28 0c 00 00       	mov    0xc28,%eax
{
 786:	89 e5                	mov    %esp,%ebp
 788:	57                   	push   %edi
 789:	56                   	push   %esi
 78a:	53                   	push   %ebx
 78b:	8b 5d 08             	mov    0x8(%ebp),%ebx
  bp = (Header*)ap - 1;
 78e:	8d 4b f8             	lea    -0x8(%ebx),%ecx
  for(p = freep; !(bp > p && bp < p->s.ptr); p = p->s.ptr)
 791:	8d b4 26 00 00 00 00 	lea    0x0(%esi,%eiz,1),%esi
 798:	89 c2                	mov    %eax,%edx
 79a:	8b 00                	mov    (%eax),%eax
 79c:	39 ca                	cmp    %ecx,%edx
 79e:	73 30                	jae    7d0 <free+0x50>
 7a0:	39 c1                	cmp    %eax,%ecx
 7a2:	72 04                	jb     7a8 <free+0x28>
    if(p >= p->s.ptr && (bp > p || bp < p->s.ptr))
 7a4:	39 c2                	cmp    %eax,%edx
 7a6:	72 f0                	jb     798 <free+0x18>
      break;
  if(bp + bp->s.size == p->s.ptr){
 7a8:	8b 73 fc             	mov    -0x4(%ebx),%esi
 7ab:	8d 3c f1             	lea    (%ecx,%esi,8),%edi
 7ae:	39 f8                	cmp    %edi,%eax
 7b0:	74 30                	je     7e2 <free+0x62>
    bp->s.size += p->s.ptr->s.size;
    bp->s.ptr = p->s.ptr->s.ptr;
 7b2:	89 43 f8             	mov    %eax,-0x8(%ebx)
  } else
    bp->s.ptr = p->s.ptr;
  if(p + p->s.size == bp){
 7b5:	8b 42 04             	mov    0x4(%edx),%eax
 7b8:	8d 34 c2             	lea    (%edx,%eax,8),%esi
 7bb:	39 f1                	cmp    %esi,%ecx
 7bd:	74 3a                	je     7f9 <free+0x79>
    p->s.size += bp->s.size;
    p->s.ptr = bp->s.ptr;
 7bf:	89 0a                	mov    %ecx,(%edx)
  } else
    p->s.ptr = bp;
  freep = p;
}
 7c1:	5b                   	pop    %ebx
  freep = p;
 7c2:	89 15 28 0c 00 00    	mov    %edx,0xc28
}
 7c8:	5e                   	pop    %esi
 7c9:	5f                   	pop    %edi
 7ca:	5d                   	pop    %ebp
 7cb:	c3                   	ret    
 7cc:	8d 74 26 00          	lea    0x0(%esi,%eiz,1),%esi
    if(p >= p->s.ptr && (bp > p || bp < p->s.ptr))
 7d0:	39 c2                	cmp    %eax,%edx
 7d2:	72 c4                	jb     798 <free+0x18>
 7d4:	39 c1                	cmp    %eax,%ecx
 7d6:	73 c0                	jae    798 <free+0x18>
  if(bp + bp->s.size == p->s.ptr){
 7d8:	8b 73 fc             	mov    -0x4(%ebx),%esi
 7db:	8d 3c f1             	lea    (%ecx,%esi,8),%edi
 7de:	39 f8                	cmp    %edi,%eax
 7e0:	75 d0                	jne    7b2 <free+0x32>
    bp->s.size += p->s.ptr->s.size;
 7e2:	03 70 04             	add    0x4(%eax),%esi
 7e5:	89 73 fc             	mov    %esi,-0x4(%ebx)
    bp->s.ptr = p->s.ptr->s.ptr;
 7e8:	8b 02                	mov    (%edx),%eax
 7ea:	8b 00                	mov    (%eax),%eax
 7ec:	89 43 f8             	mov    %eax,-0x8(%ebx)
  if(p + p->s.size == bp){
 7ef:	8b 42 04             	mov    0x4(%edx),%eax
 7f2:	8d 34 c2             	lea    (%edx,%eax,8),%esi
 7f5:	39 f1                	cmp    %esi,%ecx
 7f7:	75 c6                	jne    7bf <free+0x3f>
    p->s.size += bp->s.size;
 7f9:	03 43 fc             	add    -0x4(%ebx),%eax
  freep = p;
 7fc:	89 15 28 0c 00 00    	mov    %edx,0xc28
    p->s.size += bp->s.size;
 802:	89 42 04             	mov    %eax,0x4(%edx)
    p->s.ptr = bp->s.ptr;
 805:	8b 4b f8             	mov    -0x8(%ebx),%ecx
 808:	89 0a                	mov    %ecx,(%edx)
}
 80a:	5b                   	pop    %ebx
 80b:	5e                   	pop    %esi
 80c:	5f                   	pop    %edi
 80d:	5d                   	pop    %ebp
 80e:	c3                   	ret    
 80f:	90                   	nop

00000810 <malloc>:
  return freep;
}

void*
malloc(uint nbytes)
{
 810:	55                   	push   %ebp
 811:	89 e5                	mov    %esp,%ebp
 813:	57                   	push   %edi
 814:	56                   	push   %esi
 815:	53                   	push   %ebx
 816:	83 ec 1c             	sub    $0x1c,%esp
  Header *p, *prevp;
  uint nunits;

  nunits = (nbytes + sizeof(Header) - 1)/sizeof(Header) + 1;
 819:	8b 45 08             	mov    0x8(%ebp),%eax
  if((prevp = freep) == 0){
 81c:	8b 3d 28 0c 00 00    	mov    0xc28,%edi
  nunits = (nbytes + sizeof(Header) - 1)/sizeof(Header) + 1;
 822:	8d 70 07             	lea    0x7(%eax),%esi
 825:	c1 ee 03             	shr    $0x3,%esi
 828:	83 c6 01             	add    $0x1,%esi
  if((prevp = freep) == 0){
 82b:	85 ff                	test   %edi,%edi
 82d:	0f 84 9d 00 00 00    	je     8d0 <malloc+0xc0>
    base.s.ptr = freep = prevp = &base;
    base.s.size = 0;
  }
  for(p = prevp->s.ptr; ; prevp = p, p = p->s.ptr){
 833:	8b 17                	mov    (%edi),%edx
    if(p->s.size >= nunits){
 835:	8b 4a 04             	mov    0x4(%edx),%ecx
 838:	39 f1                	cmp    %esi,%ecx
 83a:	73 6a                	jae    8a6 <malloc+0x96>
 83c:	bb 00 10 00 00       	mov    $0x1000,%ebx
 841:	39 de                	cmp    %ebx,%esi
 843:	0f 43 de             	cmovae %esi,%ebx
  p = sbrk(nu * sizeof(Header));
 846:	8d 04 dd 00 00 00 00 	lea    0x0(,%ebx,8),%eax
 84d:	89 45 e4             	mov    %eax,-0x1c(%ebp)
 850:	eb 17                	jmp    869 <malloc+0x59>
 852:	8d b6 00 00 00 00    	lea    0x0(%esi),%esi
  for(p = prevp->s.ptr; ; prevp = p, p = p->s.ptr){
 858:	8b 02                	mov    (%edx),%eax
    if(p->s.size >= nunits){
 85a:	8b 48 04             	mov    0x4(%eax),%ecx
 85d:	39 f1                	cmp    %esi,%ecx
 85f:	73 4f                	jae    8b0 <malloc+0xa0>
        p->s.size = nunits;
      }
      freep = prevp;
      return (void*)(p + 1);
    }
    if(p == freep)
 861:	8b 3d 28 0c 00 00    	mov    0xc28,%edi
 867:	89 c2                	mov    %eax,%edx
 869:	39 d7                	cmp    %edx,%edi
 86b:	75 eb                	jne    858 <malloc+0x48>
  p = sbrk(nu * sizeof(Header));
 86d:	83 ec 0c             	sub    $0xc,%esp
 870:	ff 75 e4             	push   -0x1c(%ebp)
 873:	e8 f3 fb ff ff       	call   46b <sbrk>
  if(p == (char*)-1)
 878:	83 c4 10             	add    $0x10,%esp
 87b:	83 f8 ff             	cmp    $0xffffffff,%eax
 87e:	74 1c                	je     89c <malloc+0x8c>
  hp->s.size = nu;
 880:	89 58 04             	mov    %ebx,0x4(%eax)
  free((void*)(hp + 1));
 883:	83 ec 0c             	sub    $0xc,%esp
 886:	83 c0 08             	add    $0x8,%eax
 889:	50                   	push   %eax
 88a:	e8 f1 fe ff ff       	call   780 <free>
  return freep;
 88f:	8b 15 28 0c 00 00    	mov    0xc28,%edx
      if((p = morecore(nunits)) == 0)
 895:	83 c4 10             	add    $0x10,%esp
 898:	85 d2                	test   %edx,%edx
 89a:	75 bc                	jne    858 <malloc+0x48>
        return 0;
  }
}
 89c:	8d 65 f4             	lea    -0xc(%ebp),%esp
        return 0;
 89f:	31 c0                	xor    %eax,%eax
}
 8a1:	5b                   	pop    %ebx
 8a2:	5e                   	pop    %esi
 8a3:	5f                   	pop    %edi
 8a4:	5d                   	pop    %ebp
 8a5:	c3                   	ret    
    if(p->s.size >= nunits){
 8a6:	89 d0                	mov    %edx,%eax
 8a8:	89 fa                	mov    %edi,%edx
 8aa:	8d b6 00 00 00 00    	lea    0x0(%esi),%esi
      if(p->s.size == nunits)
 8b0:	39 ce                	cmp    %ecx,%esi
 8b2:	74 4c                	je     900 <malloc+0xf0>
        p->s.size -= nunits;
 8b4:	29 f1                	sub    %esi,%ecx
 8b6:	89 48 04             	mov    %ecx,0x4(%eax)
        p += p->s.size;
 8b9:	8d 04 c8             	lea    (%eax,%ecx,8),%eax
        p->s.size = nunits;
 8bc:	89 70 04             	mov    %esi,0x4(%eax)
      freep = prevp;
 8bf:	89 15 28 0c 00 00    	mov    %edx,0xc28
}
 8c5:	8d 65 f4             	lea    -0xc(%ebp),%esp
      return (void*)(p + 1);
 8c8:	83 c0 08             	add    $0x8,%eax
}
 8cb:	5b                   	pop    %ebx
 8cc:	5e                   	pop    %esi
 8cd:	5f                   	pop    %edi
 8ce:	5d                   	pop    %ebp
 8cf:	c3                   	ret    
    base.s.ptr = freep = prevp = &base;
 8d0:	c7 05 28 0c 00 00 2c 	movl   $0xc2c,0xc28
 8d7:	0c 00 00 
    base.s.size = 0;
 8da:	bf 2c 0c 00 00       	mov    $0xc2c,%edi
    base.s.ptr = freep = prevp = &base;
 8df:	c7 05 2c 0c 00 00 2c 	movl   $0xc2c,0xc2c
 8e6:	0c 00 00 
  for(p = prevp->s.ptr; ; prevp = p, p = p->s.ptr){
 8e9:	89 fa                	mov    %edi,%edx
    base.s.size = 0;
 8eb:	c7 05 30 0c 00 00 00 	movl   $0x0,0xc30
 8f2:	00 00 00 
    if(p->s.size >= nunits){
 8f5:	e9 42 ff ff ff       	jmp    83c <malloc+0x2c>
 8fa:	8d b6 00 00 00 00    	lea    0x0(%esi),%esi
        prevp->s.ptr = p->s.ptr;
 900:	8b 08                	mov    (%eax),%ecx
 902:	89 0a                	mov    %ecx,(%edx)
 904:	eb b9                	jmp    8bf <malloc+0xaf>
