
_test-numppvp:     file format elf32-i386


Disassembly of section .text:

00000000 <main>:
#include "stat.h"
#include "user.h"
#include "fcntl.h"

int main(void)
{
   0:	8d 4c 24 04          	lea    0x4(%esp),%ecx
   4:	83 e4 f0             	and    $0xfffffff0,%esp
   7:	ff 71 fc             	push   -0x4(%ecx)
   a:	55                   	push   %ebp
   b:	89 e5                	mov    %esp,%ebp
   d:	56                   	push   %esi
   e:	53                   	push   %ebx
   f:	51                   	push   %ecx
  10:	83 ec 0c             	sub    $0xc,%esp
  int vpages = numvp();
  13:	e8 83 03 00 00       	call   39b <numvp>
  18:	89 c6                	mov    %eax,%esi
  int ppages = numpp();
  1a:	e8 84 03 00 00       	call   3a3 <numpp>
  printf(1, "Total user virtual pages: %d \n", vpages);
  1f:	83 ec 04             	sub    $0x4,%esp
  22:	56                   	push   %esi
  int ppages = numpp();
  23:	89 c3                	mov    %eax,%ebx
  printf(1, "Total user virtual pages: %d \n", vpages);
  25:	68 f8 07 00 00       	push   $0x7f8
  2a:	6a 01                	push   $0x1
  2c:	e8 9f 04 00 00       	call   4d0 <printf>
  printf(1, "Total user physical pages: %d \n", ppages);
  31:	83 c4 0c             	add    $0xc,%esp
  34:	53                   	push   %ebx
  35:	68 18 08 00 00       	push   $0x818
  3a:	6a 01                	push   $0x1
  3c:	e8 8f 04 00 00       	call   4d0 <printf>
  sbrk(8192);
  41:	c7 04 24 00 20 00 00 	movl   $0x2000,(%esp)
  48:	e8 0e 03 00 00       	call   35b <sbrk>
  int nvpages = numvp();
  4d:	e8 49 03 00 00       	call   39b <numvp>
  52:	89 c6                	mov    %eax,%esi
  int nppages = numpp();
  54:	e8 4a 03 00 00       	call   3a3 <numpp>
  printf(1, "Total user virtual pages now: %d \n", nvpages);
  59:	83 c4 0c             	add    $0xc,%esp
  5c:	56                   	push   %esi
  int nppages = numpp();
  5d:	89 c3                	mov    %eax,%ebx
  printf(1, "Total user virtual pages now: %d \n", nvpages);
  5f:	68 38 08 00 00       	push   $0x838
  64:	6a 01                	push   $0x1
  66:	e8 65 04 00 00       	call   4d0 <printf>
  printf(1, "Total user physical pages now: %d \n", nppages);
  6b:	83 c4 0c             	add    $0xc,%esp
  6e:	53                   	push   %ebx
  6f:	68 5c 08 00 00       	push   $0x85c
  74:	6a 01                	push   $0x1
  76:	e8 55 04 00 00       	call   4d0 <printf>
  exit();
  7b:	e8 53 02 00 00       	call   2d3 <exit>

00000080 <strcpy>:
#include "user.h"
#include "x86.h"

char*
strcpy(char *s, const char *t)
{
  80:	55                   	push   %ebp
  char *os;

  os = s;
  while((*s++ = *t++) != 0)
  81:	31 c0                	xor    %eax,%eax
{
  83:	89 e5                	mov    %esp,%ebp
  85:	53                   	push   %ebx
  86:	8b 4d 08             	mov    0x8(%ebp),%ecx
  89:	8b 5d 0c             	mov    0xc(%ebp),%ebx
  8c:	8d 74 26 00          	lea    0x0(%esi,%eiz,1),%esi
  while((*s++ = *t++) != 0)
  90:	0f b6 14 03          	movzbl (%ebx,%eax,1),%edx
  94:	88 14 01             	mov    %dl,(%ecx,%eax,1)
  97:	83 c0 01             	add    $0x1,%eax
  9a:	84 d2                	test   %dl,%dl
  9c:	75 f2                	jne    90 <strcpy+0x10>
    ;
  return os;
}
  9e:	8b 5d fc             	mov    -0x4(%ebp),%ebx
  a1:	89 c8                	mov    %ecx,%eax
  a3:	c9                   	leave  
  a4:	c3                   	ret    
  a5:	8d b4 26 00 00 00 00 	lea    0x0(%esi,%eiz,1),%esi
  ac:	8d 74 26 00          	lea    0x0(%esi,%eiz,1),%esi

000000b0 <strcmp>:

int
strcmp(const char *p, const char *q)
{
  b0:	55                   	push   %ebp
  b1:	89 e5                	mov    %esp,%ebp
  b3:	53                   	push   %ebx
  b4:	8b 55 08             	mov    0x8(%ebp),%edx
  b7:	8b 4d 0c             	mov    0xc(%ebp),%ecx
  while(*p && *p == *q)
  ba:	0f b6 02             	movzbl (%edx),%eax
  bd:	84 c0                	test   %al,%al
  bf:	75 17                	jne    d8 <strcmp+0x28>
  c1:	eb 3a                	jmp    fd <strcmp+0x4d>
  c3:	8d 74 26 00          	lea    0x0(%esi,%eiz,1),%esi
  c7:	90                   	nop
  c8:	0f b6 42 01          	movzbl 0x1(%edx),%eax
    p++, q++;
  cc:	83 c2 01             	add    $0x1,%edx
  cf:	8d 59 01             	lea    0x1(%ecx),%ebx
  while(*p && *p == *q)
  d2:	84 c0                	test   %al,%al
  d4:	74 1a                	je     f0 <strcmp+0x40>
    p++, q++;
  d6:	89 d9                	mov    %ebx,%ecx
  while(*p && *p == *q)
  d8:	0f b6 19             	movzbl (%ecx),%ebx
  db:	38 c3                	cmp    %al,%bl
  dd:	74 e9                	je     c8 <strcmp+0x18>
  return (uchar)*p - (uchar)*q;
  df:	29 d8                	sub    %ebx,%eax
}
  e1:	8b 5d fc             	mov    -0x4(%ebp),%ebx
  e4:	c9                   	leave  
  e5:	c3                   	ret    
  e6:	8d b4 26 00 00 00 00 	lea    0x0(%esi,%eiz,1),%esi
  ed:	8d 76 00             	lea    0x0(%esi),%esi
  return (uchar)*p - (uchar)*q;
  f0:	0f b6 59 01          	movzbl 0x1(%ecx),%ebx
  f4:	31 c0                	xor    %eax,%eax
  f6:	29 d8                	sub    %ebx,%eax
}
  f8:	8b 5d fc             	mov    -0x4(%ebp),%ebx
  fb:	c9                   	leave  
  fc:	c3                   	ret    
  return (uchar)*p - (uchar)*q;
  fd:	0f b6 19             	movzbl (%ecx),%ebx
 100:	31 c0                	xor    %eax,%eax
 102:	eb db                	jmp    df <strcmp+0x2f>
 104:	8d b4 26 00 00 00 00 	lea    0x0(%esi,%eiz,1),%esi
 10b:	8d 74 26 00          	lea    0x0(%esi,%eiz,1),%esi
 10f:	90                   	nop

00000110 <strlen>:

uint
strlen(const char *s)
{
 110:	55                   	push   %ebp
 111:	89 e5                	mov    %esp,%ebp
 113:	8b 55 08             	mov    0x8(%ebp),%edx
  int n;

  for(n = 0; s[n]; n++)
 116:	80 3a 00             	cmpb   $0x0,(%edx)
 119:	74 15                	je     130 <strlen+0x20>
 11b:	31 c0                	xor    %eax,%eax
 11d:	8d 76 00             	lea    0x0(%esi),%esi
 120:	83 c0 01             	add    $0x1,%eax
 123:	80 3c 02 00          	cmpb   $0x0,(%edx,%eax,1)
 127:	89 c1                	mov    %eax,%ecx
 129:	75 f5                	jne    120 <strlen+0x10>
    ;
  return n;
}
 12b:	89 c8                	mov    %ecx,%eax
 12d:	5d                   	pop    %ebp
 12e:	c3                   	ret    
 12f:	90                   	nop
  for(n = 0; s[n]; n++)
 130:	31 c9                	xor    %ecx,%ecx
}
 132:	5d                   	pop    %ebp
 133:	89 c8                	mov    %ecx,%eax
 135:	c3                   	ret    
 136:	8d b4 26 00 00 00 00 	lea    0x0(%esi,%eiz,1),%esi
 13d:	8d 76 00             	lea    0x0(%esi),%esi

00000140 <memset>:

void*
memset(void *dst, int c, uint n)
{
 140:	55                   	push   %ebp
 141:	89 e5                	mov    %esp,%ebp
 143:	57                   	push   %edi
 144:	8b 55 08             	mov    0x8(%ebp),%edx
}

static inline void
stosb(void *addr, int data, int cnt)
{
  asm volatile("cld; rep stosb" :
 147:	8b 4d 10             	mov    0x10(%ebp),%ecx
 14a:	8b 45 0c             	mov    0xc(%ebp),%eax
 14d:	89 d7                	mov    %edx,%edi
 14f:	fc                   	cld    
 150:	f3 aa                	rep stos %al,%es:(%edi)
  stosb(dst, c, n);
  return dst;
}
 152:	8b 7d fc             	mov    -0x4(%ebp),%edi
 155:	89 d0                	mov    %edx,%eax
 157:	c9                   	leave  
 158:	c3                   	ret    
 159:	8d b4 26 00 00 00 00 	lea    0x0(%esi,%eiz,1),%esi

00000160 <strchr>:

char*
strchr(const char *s, char c)
{
 160:	55                   	push   %ebp
 161:	89 e5                	mov    %esp,%ebp
 163:	8b 45 08             	mov    0x8(%ebp),%eax
 166:	0f b6 4d 0c          	movzbl 0xc(%ebp),%ecx
  for(; *s; s++)
 16a:	0f b6 10             	movzbl (%eax),%edx
 16d:	84 d2                	test   %dl,%dl
 16f:	75 12                	jne    183 <strchr+0x23>
 171:	eb 1d                	jmp    190 <strchr+0x30>
 173:	8d 74 26 00          	lea    0x0(%esi,%eiz,1),%esi
 177:	90                   	nop
 178:	0f b6 50 01          	movzbl 0x1(%eax),%edx
 17c:	83 c0 01             	add    $0x1,%eax
 17f:	84 d2                	test   %dl,%dl
 181:	74 0d                	je     190 <strchr+0x30>
    if(*s == c)
 183:	38 d1                	cmp    %dl,%cl
 185:	75 f1                	jne    178 <strchr+0x18>
      return (char*)s;
  return 0;
}
 187:	5d                   	pop    %ebp
 188:	c3                   	ret    
 189:	8d b4 26 00 00 00 00 	lea    0x0(%esi,%eiz,1),%esi
  return 0;
 190:	31 c0                	xor    %eax,%eax
}
 192:	5d                   	pop    %ebp
 193:	c3                   	ret    
 194:	8d b4 26 00 00 00 00 	lea    0x0(%esi,%eiz,1),%esi
 19b:	8d 74 26 00          	lea    0x0(%esi,%eiz,1),%esi
 19f:	90                   	nop

000001a0 <gets>:

char*
gets(char *buf, int max)
{
 1a0:	55                   	push   %ebp
 1a1:	89 e5                	mov    %esp,%ebp
 1a3:	57                   	push   %edi
 1a4:	56                   	push   %esi
  int i, cc;
  char c;

  for(i=0; i+1 < max; ){
    cc = read(0, &c, 1);
 1a5:	8d 7d e7             	lea    -0x19(%ebp),%edi
{
 1a8:	53                   	push   %ebx
  for(i=0; i+1 < max; ){
 1a9:	31 db                	xor    %ebx,%ebx
{
 1ab:	83 ec 1c             	sub    $0x1c,%esp
  for(i=0; i+1 < max; ){
 1ae:	eb 27                	jmp    1d7 <gets+0x37>
    cc = read(0, &c, 1);
 1b0:	83 ec 04             	sub    $0x4,%esp
 1b3:	6a 01                	push   $0x1
 1b5:	57                   	push   %edi
 1b6:	6a 00                	push   $0x0
 1b8:	e8 2e 01 00 00       	call   2eb <read>
    if(cc < 1)
 1bd:	83 c4 10             	add    $0x10,%esp
 1c0:	85 c0                	test   %eax,%eax
 1c2:	7e 1d                	jle    1e1 <gets+0x41>
      break;
    buf[i++] = c;
 1c4:	0f b6 45 e7          	movzbl -0x19(%ebp),%eax
 1c8:	8b 55 08             	mov    0x8(%ebp),%edx
 1cb:	88 44 1a ff          	mov    %al,-0x1(%edx,%ebx,1)
    if(c == '\n' || c == '\r')
 1cf:	3c 0a                	cmp    $0xa,%al
 1d1:	74 1d                	je     1f0 <gets+0x50>
 1d3:	3c 0d                	cmp    $0xd,%al
 1d5:	74 19                	je     1f0 <gets+0x50>
  for(i=0; i+1 < max; ){
 1d7:	89 de                	mov    %ebx,%esi
 1d9:	83 c3 01             	add    $0x1,%ebx
 1dc:	3b 5d 0c             	cmp    0xc(%ebp),%ebx
 1df:	7c cf                	jl     1b0 <gets+0x10>
      break;
  }
  buf[i] = '\0';
 1e1:	8b 45 08             	mov    0x8(%ebp),%eax
 1e4:	c6 04 30 00          	movb   $0x0,(%eax,%esi,1)
  return buf;
}
 1e8:	8d 65 f4             	lea    -0xc(%ebp),%esp
 1eb:	5b                   	pop    %ebx
 1ec:	5e                   	pop    %esi
 1ed:	5f                   	pop    %edi
 1ee:	5d                   	pop    %ebp
 1ef:	c3                   	ret    
  buf[i] = '\0';
 1f0:	8b 45 08             	mov    0x8(%ebp),%eax
 1f3:	89 de                	mov    %ebx,%esi
 1f5:	c6 04 30 00          	movb   $0x0,(%eax,%esi,1)
}
 1f9:	8d 65 f4             	lea    -0xc(%ebp),%esp
 1fc:	5b                   	pop    %ebx
 1fd:	5e                   	pop    %esi
 1fe:	5f                   	pop    %edi
 1ff:	5d                   	pop    %ebp
 200:	c3                   	ret    
 201:	8d b4 26 00 00 00 00 	lea    0x0(%esi,%eiz,1),%esi
 208:	8d b4 26 00 00 00 00 	lea    0x0(%esi,%eiz,1),%esi
 20f:	90                   	nop

00000210 <stat>:

int
stat(const char *n, struct stat *st)
{
 210:	55                   	push   %ebp
 211:	89 e5                	mov    %esp,%ebp
 213:	56                   	push   %esi
 214:	53                   	push   %ebx
  int fd;
  int r;

  fd = open(n, O_RDONLY);
 215:	83 ec 08             	sub    $0x8,%esp
 218:	6a 00                	push   $0x0
 21a:	ff 75 08             	push   0x8(%ebp)
 21d:	e8 f1 00 00 00       	call   313 <open>
  if(fd < 0)
 222:	83 c4 10             	add    $0x10,%esp
 225:	85 c0                	test   %eax,%eax
 227:	78 27                	js     250 <stat+0x40>
    return -1;
  r = fstat(fd, st);
 229:	83 ec 08             	sub    $0x8,%esp
 22c:	ff 75 0c             	push   0xc(%ebp)
 22f:	89 c3                	mov    %eax,%ebx
 231:	50                   	push   %eax
 232:	e8 f4 00 00 00       	call   32b <fstat>
  close(fd);
 237:	89 1c 24             	mov    %ebx,(%esp)
  r = fstat(fd, st);
 23a:	89 c6                	mov    %eax,%esi
  close(fd);
 23c:	e8 ba 00 00 00       	call   2fb <close>
  return r;
 241:	83 c4 10             	add    $0x10,%esp
}
 244:	8d 65 f8             	lea    -0x8(%ebp),%esp
 247:	89 f0                	mov    %esi,%eax
 249:	5b                   	pop    %ebx
 24a:	5e                   	pop    %esi
 24b:	5d                   	pop    %ebp
 24c:	c3                   	ret    
 24d:	8d 76 00             	lea    0x0(%esi),%esi
    return -1;
 250:	be ff ff ff ff       	mov    $0xffffffff,%esi
 255:	eb ed                	jmp    244 <stat+0x34>
 257:	8d b4 26 00 00 00 00 	lea    0x0(%esi,%eiz,1),%esi
 25e:	66 90                	xchg   %ax,%ax

00000260 <atoi>:

int
atoi(const char *s)
{
 260:	55                   	push   %ebp
 261:	89 e5                	mov    %esp,%ebp
 263:	53                   	push   %ebx
 264:	8b 55 08             	mov    0x8(%ebp),%edx
  int n;

  n = 0;
  while('0' <= *s && *s <= '9')
 267:	0f be 02             	movsbl (%edx),%eax
 26a:	8d 48 d0             	lea    -0x30(%eax),%ecx
 26d:	80 f9 09             	cmp    $0x9,%cl
  n = 0;
 270:	b9 00 00 00 00       	mov    $0x0,%ecx
  while('0' <= *s && *s <= '9')
 275:	77 1e                	ja     295 <atoi+0x35>
 277:	8d b4 26 00 00 00 00 	lea    0x0(%esi,%eiz,1),%esi
 27e:	66 90                	xchg   %ax,%ax
    n = n*10 + *s++ - '0';
 280:	83 c2 01             	add    $0x1,%edx
 283:	8d 0c 89             	lea    (%ecx,%ecx,4),%ecx
 286:	8d 4c 48 d0          	lea    -0x30(%eax,%ecx,2),%ecx
  while('0' <= *s && *s <= '9')
 28a:	0f be 02             	movsbl (%edx),%eax
 28d:	8d 58 d0             	lea    -0x30(%eax),%ebx
 290:	80 fb 09             	cmp    $0x9,%bl
 293:	76 eb                	jbe    280 <atoi+0x20>
  return n;
}
 295:	8b 5d fc             	mov    -0x4(%ebp),%ebx
 298:	89 c8                	mov    %ecx,%eax
 29a:	c9                   	leave  
 29b:	c3                   	ret    
 29c:	8d 74 26 00          	lea    0x0(%esi,%eiz,1),%esi

000002a0 <memmove>:

void*
memmove(void *vdst, const void *vsrc, int n)
{
 2a0:	55                   	push   %ebp
 2a1:	89 e5                	mov    %esp,%ebp
 2a3:	57                   	push   %edi
 2a4:	8b 45 10             	mov    0x10(%ebp),%eax
 2a7:	8b 55 08             	mov    0x8(%ebp),%edx
 2aa:	56                   	push   %esi
 2ab:	8b 75 0c             	mov    0xc(%ebp),%esi
  char *dst;
  const char *src;

  dst = vdst;
  src = vsrc;
  while(n-- > 0)
 2ae:	85 c0                	test   %eax,%eax
 2b0:	7e 13                	jle    2c5 <memmove+0x25>
 2b2:	01 d0                	add    %edx,%eax
  dst = vdst;
 2b4:	89 d7                	mov    %edx,%edi
 2b6:	8d b4 26 00 00 00 00 	lea    0x0(%esi,%eiz,1),%esi
 2bd:	8d 76 00             	lea    0x0(%esi),%esi
    *dst++ = *src++;
 2c0:	a4                   	movsb  %ds:(%esi),%es:(%edi)
  while(n-- > 0)
 2c1:	39 f8                	cmp    %edi,%eax
 2c3:	75 fb                	jne    2c0 <memmove+0x20>
  return vdst;
}
 2c5:	5e                   	pop    %esi
 2c6:	89 d0                	mov    %edx,%eax
 2c8:	5f                   	pop    %edi
 2c9:	5d                   	pop    %ebp
 2ca:	c3                   	ret    

000002cb <fork>:
  name: \
    movl $SYS_ ## name, %eax; \
    int $T_SYSCALL; \
    ret

SYSCALL(fork)
 2cb:	b8 01 00 00 00       	mov    $0x1,%eax
 2d0:	cd 40                	int    $0x40
 2d2:	c3                   	ret    

000002d3 <exit>:
SYSCALL(exit)
 2d3:	b8 02 00 00 00       	mov    $0x2,%eax
 2d8:	cd 40                	int    $0x40
 2da:	c3                   	ret    

000002db <wait>:
SYSCALL(wait)
 2db:	b8 03 00 00 00       	mov    $0x3,%eax
 2e0:	cd 40                	int    $0x40
 2e2:	c3                   	ret    

000002e3 <pipe>:
SYSCALL(pipe)
 2e3:	b8 04 00 00 00       	mov    $0x4,%eax
 2e8:	cd 40                	int    $0x40
 2ea:	c3                   	ret    

000002eb <read>:
SYSCALL(read)
 2eb:	b8 05 00 00 00       	mov    $0x5,%eax
 2f0:	cd 40                	int    $0x40
 2f2:	c3                   	ret    

000002f3 <write>:
SYSCALL(write)
 2f3:	b8 10 00 00 00       	mov    $0x10,%eax
 2f8:	cd 40                	int    $0x40
 2fa:	c3                   	ret    

000002fb <close>:
SYSCALL(close)
 2fb:	b8 15 00 00 00       	mov    $0x15,%eax
 300:	cd 40                	int    $0x40
 302:	c3                   	ret    

00000303 <kill>:
SYSCALL(kill)
 303:	b8 06 00 00 00       	mov    $0x6,%eax
 308:	cd 40                	int    $0x40
 30a:	c3                   	ret    

0000030b <exec>:
SYSCALL(exec)
 30b:	b8 07 00 00 00       	mov    $0x7,%eax
 310:	cd 40                	int    $0x40
 312:	c3                   	ret    

00000313 <open>:
SYSCALL(open)
 313:	b8 0f 00 00 00       	mov    $0xf,%eax
 318:	cd 40                	int    $0x40
 31a:	c3                   	ret    

0000031b <mknod>:
SYSCALL(mknod)
 31b:	b8 11 00 00 00       	mov    $0x11,%eax
 320:	cd 40                	int    $0x40
 322:	c3                   	ret    

00000323 <unlink>:
SYSCALL(unlink)
 323:	b8 12 00 00 00       	mov    $0x12,%eax
 328:	cd 40                	int    $0x40
 32a:	c3                   	ret    

0000032b <fstat>:
SYSCALL(fstat)
 32b:	b8 08 00 00 00       	mov    $0x8,%eax
 330:	cd 40                	int    $0x40
 332:	c3                   	ret    

00000333 <link>:
SYSCALL(link)
 333:	b8 13 00 00 00       	mov    $0x13,%eax
 338:	cd 40                	int    $0x40
 33a:	c3                   	ret    

0000033b <mkdir>:
SYSCALL(mkdir)
 33b:	b8 14 00 00 00       	mov    $0x14,%eax
 340:	cd 40                	int    $0x40
 342:	c3                   	ret    

00000343 <chdir>:
SYSCALL(chdir)
 343:	b8 09 00 00 00       	mov    $0x9,%eax
 348:	cd 40                	int    $0x40
 34a:	c3                   	ret    

0000034b <dup>:
SYSCALL(dup)
 34b:	b8 0a 00 00 00       	mov    $0xa,%eax
 350:	cd 40                	int    $0x40
 352:	c3                   	ret    

00000353 <getpid>:
SYSCALL(getpid)
 353:	b8 0b 00 00 00       	mov    $0xb,%eax
 358:	cd 40                	int    $0x40
 35a:	c3                   	ret    

0000035b <sbrk>:
SYSCALL(sbrk)
 35b:	b8 0c 00 00 00       	mov    $0xc,%eax
 360:	cd 40                	int    $0x40
 362:	c3                   	ret    

00000363 <sleep>:
SYSCALL(sleep)
 363:	b8 0d 00 00 00       	mov    $0xd,%eax
 368:	cd 40                	int    $0x40
 36a:	c3                   	ret    

0000036b <uptime>:
SYSCALL(uptime)
 36b:	b8 0e 00 00 00       	mov    $0xe,%eax
 370:	cd 40                	int    $0x40
 372:	c3                   	ret    

00000373 <hello>:
SYSCALL(hello)
 373:	b8 16 00 00 00       	mov    $0x16,%eax
 378:	cd 40                	int    $0x40
 37a:	c3                   	ret    

0000037b <helloYou>:
SYSCALL(helloYou)
 37b:	b8 17 00 00 00       	mov    $0x17,%eax
 380:	cd 40                	int    $0x40
 382:	c3                   	ret    

00000383 <getppid>:
SYSCALL(getppid)
 383:	b8 18 00 00 00       	mov    $0x18,%eax
 388:	cd 40                	int    $0x40
 38a:	c3                   	ret    

0000038b <get_siblings_info>:
SYSCALL(get_siblings_info)
 38b:	b8 19 00 00 00       	mov    $0x19,%eax
 390:	cd 40                	int    $0x40
 392:	c3                   	ret    

00000393 <signalProcess>:
SYSCALL(signalProcess)
 393:	b8 1a 00 00 00       	mov    $0x1a,%eax
 398:	cd 40                	int    $0x40
 39a:	c3                   	ret    

0000039b <numvp>:
SYSCALL(numvp)
 39b:	b8 1b 00 00 00       	mov    $0x1b,%eax
 3a0:	cd 40                	int    $0x40
 3a2:	c3                   	ret    

000003a3 <numpp>:
SYSCALL(numpp)
 3a3:	b8 1c 00 00 00       	mov    $0x1c,%eax
 3a8:	cd 40                	int    $0x40
 3aa:	c3                   	ret    

000003ab <init_counter>:

SYSCALL(init_counter)
 3ab:	b8 1d 00 00 00       	mov    $0x1d,%eax
 3b0:	cd 40                	int    $0x40
 3b2:	c3                   	ret    

000003b3 <update_cnt>:
SYSCALL(update_cnt)
 3b3:	b8 1e 00 00 00       	mov    $0x1e,%eax
 3b8:	cd 40                	int    $0x40
 3ba:	c3                   	ret    

000003bb <display_count>:
SYSCALL(display_count)
 3bb:	b8 1f 00 00 00       	mov    $0x1f,%eax
 3c0:	cd 40                	int    $0x40
 3c2:	c3                   	ret    

000003c3 <init_counter_1>:
SYSCALL(init_counter_1)
 3c3:	b8 20 00 00 00       	mov    $0x20,%eax
 3c8:	cd 40                	int    $0x40
 3ca:	c3                   	ret    

000003cb <update_cnt_1>:
SYSCALL(update_cnt_1)
 3cb:	b8 21 00 00 00       	mov    $0x21,%eax
 3d0:	cd 40                	int    $0x40
 3d2:	c3                   	ret    

000003d3 <display_count_1>:
SYSCALL(display_count_1)
 3d3:	b8 22 00 00 00       	mov    $0x22,%eax
 3d8:	cd 40                	int    $0x40
 3da:	c3                   	ret    

000003db <init_counter_2>:
SYSCALL(init_counter_2)
 3db:	b8 23 00 00 00       	mov    $0x23,%eax
 3e0:	cd 40                	int    $0x40
 3e2:	c3                   	ret    

000003e3 <update_cnt_2>:
SYSCALL(update_cnt_2)
 3e3:	b8 24 00 00 00       	mov    $0x24,%eax
 3e8:	cd 40                	int    $0x40
 3ea:	c3                   	ret    

000003eb <display_count_2>:
SYSCALL(display_count_2)
 3eb:	b8 25 00 00 00       	mov    $0x25,%eax
 3f0:	cd 40                	int    $0x40
 3f2:	c3                   	ret    

000003f3 <init_mylock>:
SYSCALL(init_mylock)
 3f3:	b8 26 00 00 00       	mov    $0x26,%eax
 3f8:	cd 40                	int    $0x40
 3fa:	c3                   	ret    

000003fb <acquire_mylock>:
SYSCALL(acquire_mylock)
 3fb:	b8 27 00 00 00       	mov    $0x27,%eax
 400:	cd 40                	int    $0x40
 402:	c3                   	ret    

00000403 <release_mylock>:
SYSCALL(release_mylock)
 403:	b8 28 00 00 00       	mov    $0x28,%eax
 408:	cd 40                	int    $0x40
 40a:	c3                   	ret    

0000040b <holding_mylock>:
 40b:	b8 29 00 00 00       	mov    $0x29,%eax
 410:	cd 40                	int    $0x40
 412:	c3                   	ret    
 413:	66 90                	xchg   %ax,%ax
 415:	66 90                	xchg   %ax,%ax
 417:	66 90                	xchg   %ax,%ax
 419:	66 90                	xchg   %ax,%ax
 41b:	66 90                	xchg   %ax,%ax
 41d:	66 90                	xchg   %ax,%ax
 41f:	90                   	nop

00000420 <printint>:
  write(fd, &c, 1);
}

static void
printint(int fd, int xx, int base, int sgn)
{
 420:	55                   	push   %ebp
 421:	89 e5                	mov    %esp,%ebp
 423:	57                   	push   %edi
 424:	56                   	push   %esi
 425:	53                   	push   %ebx
 426:	83 ec 3c             	sub    $0x3c,%esp
 429:	89 4d c4             	mov    %ecx,-0x3c(%ebp)
  uint x;

  neg = 0;
  if(sgn && xx < 0){
    neg = 1;
    x = -xx;
 42c:	89 d1                	mov    %edx,%ecx
{
 42e:	89 45 b8             	mov    %eax,-0x48(%ebp)
  if(sgn && xx < 0){
 431:	85 d2                	test   %edx,%edx
 433:	0f 89 7f 00 00 00    	jns    4b8 <printint+0x98>
 439:	f6 45 08 01          	testb  $0x1,0x8(%ebp)
 43d:	74 79                	je     4b8 <printint+0x98>
    neg = 1;
 43f:	c7 45 bc 01 00 00 00 	movl   $0x1,-0x44(%ebp)
    x = -xx;
 446:	f7 d9                	neg    %ecx
  } else {
    x = xx;
  }

  i = 0;
 448:	31 db                	xor    %ebx,%ebx
 44a:	8d 75 d7             	lea    -0x29(%ebp),%esi
 44d:	8d 76 00             	lea    0x0(%esi),%esi
  do{
    buf[i++] = digits[x % base];
 450:	89 c8                	mov    %ecx,%eax
 452:	31 d2                	xor    %edx,%edx
 454:	89 cf                	mov    %ecx,%edi
 456:	f7 75 c4             	divl   -0x3c(%ebp)
 459:	0f b6 92 e0 08 00 00 	movzbl 0x8e0(%edx),%edx
 460:	89 45 c0             	mov    %eax,-0x40(%ebp)
 463:	89 d8                	mov    %ebx,%eax
 465:	8d 5b 01             	lea    0x1(%ebx),%ebx
  }while((x /= base) != 0);
 468:	8b 4d c0             	mov    -0x40(%ebp),%ecx
    buf[i++] = digits[x % base];
 46b:	88 14 1e             	mov    %dl,(%esi,%ebx,1)
  }while((x /= base) != 0);
 46e:	39 7d c4             	cmp    %edi,-0x3c(%ebp)
 471:	76 dd                	jbe    450 <printint+0x30>
  if(neg)
 473:	8b 4d bc             	mov    -0x44(%ebp),%ecx
 476:	85 c9                	test   %ecx,%ecx
 478:	74 0c                	je     486 <printint+0x66>
    buf[i++] = '-';
 47a:	c6 44 1d d8 2d       	movb   $0x2d,-0x28(%ebp,%ebx,1)
    buf[i++] = digits[x % base];
 47f:	89 d8                	mov    %ebx,%eax
    buf[i++] = '-';
 481:	ba 2d 00 00 00       	mov    $0x2d,%edx

  while(--i >= 0)
 486:	8b 7d b8             	mov    -0x48(%ebp),%edi
 489:	8d 5c 05 d7          	lea    -0x29(%ebp,%eax,1),%ebx
 48d:	eb 07                	jmp    496 <printint+0x76>
 48f:	90                   	nop
    putc(fd, buf[i]);
 490:	0f b6 13             	movzbl (%ebx),%edx
 493:	83 eb 01             	sub    $0x1,%ebx
  write(fd, &c, 1);
 496:	83 ec 04             	sub    $0x4,%esp
 499:	88 55 d7             	mov    %dl,-0x29(%ebp)
 49c:	6a 01                	push   $0x1
 49e:	56                   	push   %esi
 49f:	57                   	push   %edi
 4a0:	e8 4e fe ff ff       	call   2f3 <write>
  while(--i >= 0)
 4a5:	83 c4 10             	add    $0x10,%esp
 4a8:	39 de                	cmp    %ebx,%esi
 4aa:	75 e4                	jne    490 <printint+0x70>
}
 4ac:	8d 65 f4             	lea    -0xc(%ebp),%esp
 4af:	5b                   	pop    %ebx
 4b0:	5e                   	pop    %esi
 4b1:	5f                   	pop    %edi
 4b2:	5d                   	pop    %ebp
 4b3:	c3                   	ret    
 4b4:	8d 74 26 00          	lea    0x0(%esi,%eiz,1),%esi
  neg = 0;
 4b8:	c7 45 bc 00 00 00 00 	movl   $0x0,-0x44(%ebp)
 4bf:	eb 87                	jmp    448 <printint+0x28>
 4c1:	8d b4 26 00 00 00 00 	lea    0x0(%esi,%eiz,1),%esi
 4c8:	8d b4 26 00 00 00 00 	lea    0x0(%esi,%eiz,1),%esi
 4cf:	90                   	nop

000004d0 <printf>:

// Print to the given fd. Only understands %d, %x, %p, %s.
void
printf(int fd, const char *fmt, ...)
{
 4d0:	55                   	push   %ebp
 4d1:	89 e5                	mov    %esp,%ebp
 4d3:	57                   	push   %edi
 4d4:	56                   	push   %esi
 4d5:	53                   	push   %ebx
 4d6:	83 ec 2c             	sub    $0x2c,%esp
  int c, i, state;
  uint *ap;

  state = 0;
  ap = (uint*)(void*)&fmt + 1;
  for(i = 0; fmt[i]; i++){
 4d9:	8b 5d 0c             	mov    0xc(%ebp),%ebx
{
 4dc:	8b 75 08             	mov    0x8(%ebp),%esi
  for(i = 0; fmt[i]; i++){
 4df:	0f b6 13             	movzbl (%ebx),%edx
 4e2:	84 d2                	test   %dl,%dl
 4e4:	74 6a                	je     550 <printf+0x80>
  ap = (uint*)(void*)&fmt + 1;
 4e6:	8d 45 10             	lea    0x10(%ebp),%eax
 4e9:	83 c3 01             	add    $0x1,%ebx
  write(fd, &c, 1);
 4ec:	8d 7d e7             	lea    -0x19(%ebp),%edi
  state = 0;
 4ef:	31 c9                	xor    %ecx,%ecx
  ap = (uint*)(void*)&fmt + 1;
 4f1:	89 45 d0             	mov    %eax,-0x30(%ebp)
 4f4:	eb 36                	jmp    52c <printf+0x5c>
 4f6:	8d b4 26 00 00 00 00 	lea    0x0(%esi,%eiz,1),%esi
 4fd:	8d 76 00             	lea    0x0(%esi),%esi
 500:	89 4d d4             	mov    %ecx,-0x2c(%ebp)
    c = fmt[i] & 0xff;
    if(state == 0){
      if(c == '%'){
        state = '%';
 503:	b9 25 00 00 00       	mov    $0x25,%ecx
      if(c == '%'){
 508:	83 f8 25             	cmp    $0x25,%eax
 50b:	74 15                	je     522 <printf+0x52>
  write(fd, &c, 1);
 50d:	83 ec 04             	sub    $0x4,%esp
 510:	88 55 e7             	mov    %dl,-0x19(%ebp)
 513:	6a 01                	push   $0x1
 515:	57                   	push   %edi
 516:	56                   	push   %esi
 517:	e8 d7 fd ff ff       	call   2f3 <write>
 51c:	8b 4d d4             	mov    -0x2c(%ebp),%ecx
      } else {
        putc(fd, c);
 51f:	83 c4 10             	add    $0x10,%esp
  for(i = 0; fmt[i]; i++){
 522:	0f b6 13             	movzbl (%ebx),%edx
 525:	83 c3 01             	add    $0x1,%ebx
 528:	84 d2                	test   %dl,%dl
 52a:	74 24                	je     550 <printf+0x80>
    c = fmt[i] & 0xff;
 52c:	0f b6 c2             	movzbl %dl,%eax
    if(state == 0){
 52f:	85 c9                	test   %ecx,%ecx
 531:	74 cd                	je     500 <printf+0x30>
      }
    } else if(state == '%'){
 533:	83 f9 25             	cmp    $0x25,%ecx
 536:	75 ea                	jne    522 <printf+0x52>
      if(c == 'd'){
 538:	83 f8 25             	cmp    $0x25,%eax
 53b:	0f 84 07 01 00 00    	je     648 <printf+0x178>
 541:	83 e8 63             	sub    $0x63,%eax
 544:	83 f8 15             	cmp    $0x15,%eax
 547:	77 17                	ja     560 <printf+0x90>
 549:	ff 24 85 88 08 00 00 	jmp    *0x888(,%eax,4)
        putc(fd, c);
      }
      state = 0;
    }
  }
}
 550:	8d 65 f4             	lea    -0xc(%ebp),%esp
 553:	5b                   	pop    %ebx
 554:	5e                   	pop    %esi
 555:	5f                   	pop    %edi
 556:	5d                   	pop    %ebp
 557:	c3                   	ret    
 558:	8d b4 26 00 00 00 00 	lea    0x0(%esi,%eiz,1),%esi
 55f:	90                   	nop
  write(fd, &c, 1);
 560:	83 ec 04             	sub    $0x4,%esp
 563:	88 55 d4             	mov    %dl,-0x2c(%ebp)
 566:	6a 01                	push   $0x1
 568:	57                   	push   %edi
 569:	56                   	push   %esi
 56a:	c6 45 e7 25          	movb   $0x25,-0x19(%ebp)
 56e:	e8 80 fd ff ff       	call   2f3 <write>
        putc(fd, c);
 573:	0f b6 55 d4          	movzbl -0x2c(%ebp),%edx
  write(fd, &c, 1);
 577:	83 c4 0c             	add    $0xc,%esp
 57a:	88 55 e7             	mov    %dl,-0x19(%ebp)
 57d:	6a 01                	push   $0x1
 57f:	57                   	push   %edi
 580:	56                   	push   %esi
 581:	e8 6d fd ff ff       	call   2f3 <write>
        putc(fd, c);
 586:	83 c4 10             	add    $0x10,%esp
      state = 0;
 589:	31 c9                	xor    %ecx,%ecx
 58b:	eb 95                	jmp    522 <printf+0x52>
 58d:	8d 76 00             	lea    0x0(%esi),%esi
        printint(fd, *ap, 16, 0);
 590:	83 ec 0c             	sub    $0xc,%esp
 593:	b9 10 00 00 00       	mov    $0x10,%ecx
 598:	6a 00                	push   $0x0
 59a:	8b 45 d0             	mov    -0x30(%ebp),%eax
 59d:	8b 10                	mov    (%eax),%edx
 59f:	89 f0                	mov    %esi,%eax
 5a1:	e8 7a fe ff ff       	call   420 <printint>
        ap++;
 5a6:	83 45 d0 04          	addl   $0x4,-0x30(%ebp)
 5aa:	83 c4 10             	add    $0x10,%esp
      state = 0;
 5ad:	31 c9                	xor    %ecx,%ecx
 5af:	e9 6e ff ff ff       	jmp    522 <printf+0x52>
 5b4:	8d 74 26 00          	lea    0x0(%esi,%eiz,1),%esi
        s = (char*)*ap;
 5b8:	8b 45 d0             	mov    -0x30(%ebp),%eax
 5bb:	8b 10                	mov    (%eax),%edx
        ap++;
 5bd:	83 c0 04             	add    $0x4,%eax
 5c0:	89 45 d0             	mov    %eax,-0x30(%ebp)
        if(s == 0)
 5c3:	85 d2                	test   %edx,%edx
 5c5:	0f 84 8d 00 00 00    	je     658 <printf+0x188>
        while(*s != 0){
 5cb:	0f b6 02             	movzbl (%edx),%eax
      state = 0;
 5ce:	31 c9                	xor    %ecx,%ecx
        while(*s != 0){
 5d0:	84 c0                	test   %al,%al
 5d2:	0f 84 4a ff ff ff    	je     522 <printf+0x52>
 5d8:	89 5d d4             	mov    %ebx,-0x2c(%ebp)
 5db:	89 d3                	mov    %edx,%ebx
 5dd:	8d 76 00             	lea    0x0(%esi),%esi
  write(fd, &c, 1);
 5e0:	83 ec 04             	sub    $0x4,%esp
          s++;
 5e3:	83 c3 01             	add    $0x1,%ebx
 5e6:	88 45 e7             	mov    %al,-0x19(%ebp)
  write(fd, &c, 1);
 5e9:	6a 01                	push   $0x1
 5eb:	57                   	push   %edi
 5ec:	56                   	push   %esi
 5ed:	e8 01 fd ff ff       	call   2f3 <write>
        while(*s != 0){
 5f2:	0f b6 03             	movzbl (%ebx),%eax
 5f5:	83 c4 10             	add    $0x10,%esp
 5f8:	84 c0                	test   %al,%al
 5fa:	75 e4                	jne    5e0 <printf+0x110>
      state = 0;
 5fc:	8b 5d d4             	mov    -0x2c(%ebp),%ebx
 5ff:	31 c9                	xor    %ecx,%ecx
 601:	e9 1c ff ff ff       	jmp    522 <printf+0x52>
 606:	8d b4 26 00 00 00 00 	lea    0x0(%esi,%eiz,1),%esi
 60d:	8d 76 00             	lea    0x0(%esi),%esi
        printint(fd, *ap, 10, 1);
 610:	83 ec 0c             	sub    $0xc,%esp
 613:	b9 0a 00 00 00       	mov    $0xa,%ecx
 618:	6a 01                	push   $0x1
 61a:	e9 7b ff ff ff       	jmp    59a <printf+0xca>
 61f:	90                   	nop
        putc(fd, *ap);
 620:	8b 45 d0             	mov    -0x30(%ebp),%eax
  write(fd, &c, 1);
 623:	83 ec 04             	sub    $0x4,%esp
        putc(fd, *ap);
 626:	8b 00                	mov    (%eax),%eax
  write(fd, &c, 1);
 628:	6a 01                	push   $0x1
 62a:	57                   	push   %edi
 62b:	56                   	push   %esi
        putc(fd, *ap);
 62c:	88 45 e7             	mov    %al,-0x19(%ebp)
  write(fd, &c, 1);
 62f:	e8 bf fc ff ff       	call   2f3 <write>
        ap++;
 634:	83 45 d0 04          	addl   $0x4,-0x30(%ebp)
 638:	83 c4 10             	add    $0x10,%esp
      state = 0;
 63b:	31 c9                	xor    %ecx,%ecx
 63d:	e9 e0 fe ff ff       	jmp    522 <printf+0x52>
 642:	8d b6 00 00 00 00    	lea    0x0(%esi),%esi
        putc(fd, c);
 648:	88 55 e7             	mov    %dl,-0x19(%ebp)
  write(fd, &c, 1);
 64b:	83 ec 04             	sub    $0x4,%esp
 64e:	e9 2a ff ff ff       	jmp    57d <printf+0xad>
 653:	8d 74 26 00          	lea    0x0(%esi,%eiz,1),%esi
 657:	90                   	nop
          s = "(null)";
 658:	ba 80 08 00 00       	mov    $0x880,%edx
        while(*s != 0){
 65d:	89 5d d4             	mov    %ebx,-0x2c(%ebp)
 660:	b8 28 00 00 00       	mov    $0x28,%eax
 665:	89 d3                	mov    %edx,%ebx
 667:	e9 74 ff ff ff       	jmp    5e0 <printf+0x110>
 66c:	66 90                	xchg   %ax,%ax
 66e:	66 90                	xchg   %ax,%ax

00000670 <free>:
static Header base;
static Header *freep;

void
free(void *ap)
{
 670:	55                   	push   %ebp
  Header *bp, *p;

  bp = (Header*)ap - 1;
  for(p = freep; !(bp > p && bp < p->s.ptr); p = p->s.ptr)
 671:	a1 90 0b 00 00       	mov    0xb90,%eax
{
 676:	89 e5                	mov    %esp,%ebp
 678:	57                   	push   %edi
 679:	56                   	push   %esi
 67a:	53                   	push   %ebx
 67b:	8b 5d 08             	mov    0x8(%ebp),%ebx
  bp = (Header*)ap - 1;
 67e:	8d 4b f8             	lea    -0x8(%ebx),%ecx
  for(p = freep; !(bp > p && bp < p->s.ptr); p = p->s.ptr)
 681:	8d b4 26 00 00 00 00 	lea    0x0(%esi,%eiz,1),%esi
 688:	89 c2                	mov    %eax,%edx
 68a:	8b 00                	mov    (%eax),%eax
 68c:	39 ca                	cmp    %ecx,%edx
 68e:	73 30                	jae    6c0 <free+0x50>
 690:	39 c1                	cmp    %eax,%ecx
 692:	72 04                	jb     698 <free+0x28>
    if(p >= p->s.ptr && (bp > p || bp < p->s.ptr))
 694:	39 c2                	cmp    %eax,%edx
 696:	72 f0                	jb     688 <free+0x18>
      break;
  if(bp + bp->s.size == p->s.ptr){
 698:	8b 73 fc             	mov    -0x4(%ebx),%esi
 69b:	8d 3c f1             	lea    (%ecx,%esi,8),%edi
 69e:	39 f8                	cmp    %edi,%eax
 6a0:	74 30                	je     6d2 <free+0x62>
    bp->s.size += p->s.ptr->s.size;
    bp->s.ptr = p->s.ptr->s.ptr;
 6a2:	89 43 f8             	mov    %eax,-0x8(%ebx)
  } else
    bp->s.ptr = p->s.ptr;
  if(p + p->s.size == bp){
 6a5:	8b 42 04             	mov    0x4(%edx),%eax
 6a8:	8d 34 c2             	lea    (%edx,%eax,8),%esi
 6ab:	39 f1                	cmp    %esi,%ecx
 6ad:	74 3a                	je     6e9 <free+0x79>
    p->s.size += bp->s.size;
    p->s.ptr = bp->s.ptr;
 6af:	89 0a                	mov    %ecx,(%edx)
  } else
    p->s.ptr = bp;
  freep = p;
}
 6b1:	5b                   	pop    %ebx
  freep = p;
 6b2:	89 15 90 0b 00 00    	mov    %edx,0xb90
}
 6b8:	5e                   	pop    %esi
 6b9:	5f                   	pop    %edi
 6ba:	5d                   	pop    %ebp
 6bb:	c3                   	ret    
 6bc:	8d 74 26 00          	lea    0x0(%esi,%eiz,1),%esi
    if(p >= p->s.ptr && (bp > p || bp < p->s.ptr))
 6c0:	39 c2                	cmp    %eax,%edx
 6c2:	72 c4                	jb     688 <free+0x18>
 6c4:	39 c1                	cmp    %eax,%ecx
 6c6:	73 c0                	jae    688 <free+0x18>
  if(bp + bp->s.size == p->s.ptr){
 6c8:	8b 73 fc             	mov    -0x4(%ebx),%esi
 6cb:	8d 3c f1             	lea    (%ecx,%esi,8),%edi
 6ce:	39 f8                	cmp    %edi,%eax
 6d0:	75 d0                	jne    6a2 <free+0x32>
    bp->s.size += p->s.ptr->s.size;
 6d2:	03 70 04             	add    0x4(%eax),%esi
 6d5:	89 73 fc             	mov    %esi,-0x4(%ebx)
    bp->s.ptr = p->s.ptr->s.ptr;
 6d8:	8b 02                	mov    (%edx),%eax
 6da:	8b 00                	mov    (%eax),%eax
 6dc:	89 43 f8             	mov    %eax,-0x8(%ebx)
  if(p + p->s.size == bp){
 6df:	8b 42 04             	mov    0x4(%edx),%eax
 6e2:	8d 34 c2             	lea    (%edx,%eax,8),%esi
 6e5:	39 f1                	cmp    %esi,%ecx
 6e7:	75 c6                	jne    6af <free+0x3f>
    p->s.size += bp->s.size;
 6e9:	03 43 fc             	add    -0x4(%ebx),%eax
  freep = p;
 6ec:	89 15 90 0b 00 00    	mov    %edx,0xb90
    p->s.size += bp->s.size;
 6f2:	89 42 04             	mov    %eax,0x4(%edx)
    p->s.ptr = bp->s.ptr;
 6f5:	8b 4b f8             	mov    -0x8(%ebx),%ecx
 6f8:	89 0a                	mov    %ecx,(%edx)
}
 6fa:	5b                   	pop    %ebx
 6fb:	5e                   	pop    %esi
 6fc:	5f                   	pop    %edi
 6fd:	5d                   	pop    %ebp
 6fe:	c3                   	ret    
 6ff:	90                   	nop

00000700 <malloc>:
  return freep;
}

void*
malloc(uint nbytes)
{
 700:	55                   	push   %ebp
 701:	89 e5                	mov    %esp,%ebp
 703:	57                   	push   %edi
 704:	56                   	push   %esi
 705:	53                   	push   %ebx
 706:	83 ec 1c             	sub    $0x1c,%esp
  Header *p, *prevp;
  uint nunits;

  nunits = (nbytes + sizeof(Header) - 1)/sizeof(Header) + 1;
 709:	8b 45 08             	mov    0x8(%ebp),%eax
  if((prevp = freep) == 0){
 70c:	8b 3d 90 0b 00 00    	mov    0xb90,%edi
  nunits = (nbytes + sizeof(Header) - 1)/sizeof(Header) + 1;
 712:	8d 70 07             	lea    0x7(%eax),%esi
 715:	c1 ee 03             	shr    $0x3,%esi
 718:	83 c6 01             	add    $0x1,%esi
  if((prevp = freep) == 0){
 71b:	85 ff                	test   %edi,%edi
 71d:	0f 84 9d 00 00 00    	je     7c0 <malloc+0xc0>
    base.s.ptr = freep = prevp = &base;
    base.s.size = 0;
  }
  for(p = prevp->s.ptr; ; prevp = p, p = p->s.ptr){
 723:	8b 17                	mov    (%edi),%edx
    if(p->s.size >= nunits){
 725:	8b 4a 04             	mov    0x4(%edx),%ecx
 728:	39 f1                	cmp    %esi,%ecx
 72a:	73 6a                	jae    796 <malloc+0x96>
 72c:	bb 00 10 00 00       	mov    $0x1000,%ebx
 731:	39 de                	cmp    %ebx,%esi
 733:	0f 43 de             	cmovae %esi,%ebx
  p = sbrk(nu * sizeof(Header));
 736:	8d 04 dd 00 00 00 00 	lea    0x0(,%ebx,8),%eax
 73d:	89 45 e4             	mov    %eax,-0x1c(%ebp)
 740:	eb 17                	jmp    759 <malloc+0x59>
 742:	8d b6 00 00 00 00    	lea    0x0(%esi),%esi
  for(p = prevp->s.ptr; ; prevp = p, p = p->s.ptr){
 748:	8b 02                	mov    (%edx),%eax
    if(p->s.size >= nunits){
 74a:	8b 48 04             	mov    0x4(%eax),%ecx
 74d:	39 f1                	cmp    %esi,%ecx
 74f:	73 4f                	jae    7a0 <malloc+0xa0>
        p->s.size = nunits;
      }
      freep = prevp;
      return (void*)(p + 1);
    }
    if(p == freep)
 751:	8b 3d 90 0b 00 00    	mov    0xb90,%edi
 757:	89 c2                	mov    %eax,%edx
 759:	39 d7                	cmp    %edx,%edi
 75b:	75 eb                	jne    748 <malloc+0x48>
  p = sbrk(nu * sizeof(Header));
 75d:	83 ec 0c             	sub    $0xc,%esp
 760:	ff 75 e4             	push   -0x1c(%ebp)
 763:	e8 f3 fb ff ff       	call   35b <sbrk>
  if(p == (char*)-1)
 768:	83 c4 10             	add    $0x10,%esp
 76b:	83 f8 ff             	cmp    $0xffffffff,%eax
 76e:	74 1c                	je     78c <malloc+0x8c>
  hp->s.size = nu;
 770:	89 58 04             	mov    %ebx,0x4(%eax)
  free((void*)(hp + 1));
 773:	83 ec 0c             	sub    $0xc,%esp
 776:	83 c0 08             	add    $0x8,%eax
 779:	50                   	push   %eax
 77a:	e8 f1 fe ff ff       	call   670 <free>
  return freep;
 77f:	8b 15 90 0b 00 00    	mov    0xb90,%edx
      if((p = morecore(nunits)) == 0)
 785:	83 c4 10             	add    $0x10,%esp
 788:	85 d2                	test   %edx,%edx
 78a:	75 bc                	jne    748 <malloc+0x48>
        return 0;
  }
}
 78c:	8d 65 f4             	lea    -0xc(%ebp),%esp
        return 0;
 78f:	31 c0                	xor    %eax,%eax
}
 791:	5b                   	pop    %ebx
 792:	5e                   	pop    %esi
 793:	5f                   	pop    %edi
 794:	5d                   	pop    %ebp
 795:	c3                   	ret    
    if(p->s.size >= nunits){
 796:	89 d0                	mov    %edx,%eax
 798:	89 fa                	mov    %edi,%edx
 79a:	8d b6 00 00 00 00    	lea    0x0(%esi),%esi
      if(p->s.size == nunits)
 7a0:	39 ce                	cmp    %ecx,%esi
 7a2:	74 4c                	je     7f0 <malloc+0xf0>
        p->s.size -= nunits;
 7a4:	29 f1                	sub    %esi,%ecx
 7a6:	89 48 04             	mov    %ecx,0x4(%eax)
        p += p->s.size;
 7a9:	8d 04 c8             	lea    (%eax,%ecx,8),%eax
        p->s.size = nunits;
 7ac:	89 70 04             	mov    %esi,0x4(%eax)
      freep = prevp;
 7af:	89 15 90 0b 00 00    	mov    %edx,0xb90
}
 7b5:	8d 65 f4             	lea    -0xc(%ebp),%esp
      return (void*)(p + 1);
 7b8:	83 c0 08             	add    $0x8,%eax
}
 7bb:	5b                   	pop    %ebx
 7bc:	5e                   	pop    %esi
 7bd:	5f                   	pop    %edi
 7be:	5d                   	pop    %ebp
 7bf:	c3                   	ret    
    base.s.ptr = freep = prevp = &base;
 7c0:	c7 05 90 0b 00 00 94 	movl   $0xb94,0xb90
 7c7:	0b 00 00 
    base.s.size = 0;
 7ca:	bf 94 0b 00 00       	mov    $0xb94,%edi
    base.s.ptr = freep = prevp = &base;
 7cf:	c7 05 94 0b 00 00 94 	movl   $0xb94,0xb94
 7d6:	0b 00 00 
  for(p = prevp->s.ptr; ; prevp = p, p = p->s.ptr){
 7d9:	89 fa                	mov    %edi,%edx
    base.s.size = 0;
 7db:	c7 05 98 0b 00 00 00 	movl   $0x0,0xb98
 7e2:	00 00 00 
    if(p->s.size >= nunits){
 7e5:	e9 42 ff ff ff       	jmp    72c <malloc+0x2c>
 7ea:	8d b6 00 00 00 00    	lea    0x0(%esi),%esi
        prevp->s.ptr = p->s.ptr;
 7f0:	8b 08                	mov    (%eax),%ecx
 7f2:	89 0a                	mov    %ecx,(%edx)
 7f4:	eb b9                	jmp    7af <malloc+0xaf>
