
_test-multiprocess:     file format elf32-i386


Disassembly of section .text:

00000000 <main>:
#include "types.h"
#include "stat.h"
#include "user.h"

int main(void) 
{
   0:	8d 4c 24 04          	lea    0x4(%esp),%ecx
   4:	83 e4 f0             	and    $0xfffffff0,%esp
   7:	ff 71 fc             	push   -0x4(%ecx)
   a:	55                   	push   %ebp
   b:	89 e5                	mov    %esp,%ebp
   d:	57                   	push   %edi
   e:	56                   	push   %esi
   f:	53                   	push   %ebx
    */

    // Hint: Implement one locking system for this counter variable
    int id = init_mylock();
    // int id=0;
    acquire_mylock(id);
  10:	bb 10 27 00 00       	mov    $0x2710,%ebx
{
  15:	51                   	push   %ecx
  16:	83 ec 08             	sub    $0x8,%esp
    init_counter_1();
  19:	e8 25 04 00 00       	call   443 <init_counter_1>
    int ret1 = fork(); // creates child process 1
  1e:	e8 28 03 00 00       	call   34b <fork>
  23:	89 c7                	mov    %eax,%edi
    int id = init_mylock();
  25:	e8 49 04 00 00       	call   473 <init_mylock>
    acquire_mylock(id);
  2a:	83 ec 0c             	sub    $0xc,%esp
  2d:	50                   	push   %eax
    int id = init_mylock();
  2e:	89 c6                	mov    %eax,%esi
    acquire_mylock(id);
  30:	e8 46 04 00 00       	call   47b <acquire_mylock>
  35:	83 c4 10             	add    $0x10,%esp
  38:	8d b4 26 00 00 00 00 	lea    0x0(%esi,%eiz,1),%esi
  3f:	90                   	nop
    for(int i=0; i<10000; i++){
        update_cnt_1(display_count()+1);
  40:	e8 f6 03 00 00       	call   43b <display_count>
  45:	83 ec 0c             	sub    $0xc,%esp
  48:	83 c0 01             	add    $0x1,%eax
  4b:	50                   	push   %eax
  4c:	e8 fa 03 00 00       	call   44b <update_cnt_1>
    for(int i=0; i<10000; i++){
  51:	83 c4 10             	add    $0x10,%esp
  54:	83 eb 01             	sub    $0x1,%ebx
  57:	75 e7                	jne    40 <main+0x40>
    }
    release_mylock(id);
  59:	83 ec 0c             	sub    $0xc,%esp
  5c:	56                   	push   %esi
  5d:	e8 21 04 00 00       	call   483 <release_mylock>
    if(ret1 == 0){
  62:	83 c4 10             	add    $0x10,%esp
  65:	85 ff                	test   %edi,%edi
  67:	75 55                	jne    be <main+0xbe>
        // Hint: Implement one locking system for this counter variable
        int id2=init_mylock();
  69:	e8 05 04 00 00       	call   473 <init_mylock>
        acquire_mylock(id2);
  6e:	83 ec 0c             	sub    $0xc,%esp
        init_counter_2();
        int ret2 = fork(); //creates child process 2
  71:	bb 10 27 00 00       	mov    $0x2710,%ebx
        acquire_mylock(id2);
  76:	50                   	push   %eax
        int id2=init_mylock();
  77:	89 c6                	mov    %eax,%esi
        acquire_mylock(id2);
  79:	e8 fd 03 00 00       	call   47b <acquire_mylock>
        init_counter_2();
  7e:	e8 d8 03 00 00       	call   45b <init_counter_2>
        int ret2 = fork(); //creates child process 2
  83:	e8 c3 02 00 00       	call   34b <fork>
  88:	83 c4 10             	add    $0x10,%esp
  8b:	89 c7                	mov    %eax,%edi

        for(int j=0; j<10000; j++){
  8d:	8d 76 00             	lea    0x0(%esi),%esi
            update_cnt_2(display_count_2()+1);
  90:	e8 d6 03 00 00       	call   46b <display_count_2>
  95:	83 ec 0c             	sub    $0xc,%esp
  98:	83 c0 01             	add    $0x1,%eax
  9b:	50                   	push   %eax
  9c:	e8 c2 03 00 00       	call   463 <update_cnt_2>
        for(int j=0; j<10000; j++){
  a1:	83 c4 10             	add    $0x10,%esp
  a4:	83 eb 01             	sub    $0x1,%ebx
  a7:	75 e7                	jne    90 <main+0x90>
        }
        release_mylock(id2);
  a9:	83 ec 0c             	sub    $0xc,%esp
  ac:	56                   	push   %esi
  ad:	e8 d1 03 00 00       	call   483 <release_mylock>
        if(ret2==0)
  b2:	83 c4 10             	add    $0x10,%esp
  b5:	85 ff                	test   %edi,%edi
  b7:	75 22                	jne    db <main+0xdb>
            exit();
  b9:	e8 95 02 00 00       	call   353 <exit>
            printf(1, "counter_2: %d\n", display_count_2());
            exit();
        }
    }
    else{
        wait();
  be:	e8 98 02 00 00       	call   35b <wait>
        printf(1, "counter_1: %d\n", display_count_1());
  c3:	e8 8b 03 00 00       	call   453 <display_count_1>
  c8:	52                   	push   %edx
  c9:	50                   	push   %eax
  ca:	68 87 08 00 00       	push   $0x887
  cf:	6a 01                	push   $0x1
  d1:	e8 7a 04 00 00       	call   550 <printf>
        exit();
  d6:	e8 78 02 00 00       	call   353 <exit>
            wait();
  db:	e8 7b 02 00 00       	call   35b <wait>
            printf(1, "counter_2: %d\n", display_count_2());
  e0:	e8 86 03 00 00       	call   46b <display_count_2>
  e5:	51                   	push   %ecx
  e6:	50                   	push   %eax
  e7:	68 78 08 00 00       	push   $0x878
  ec:	6a 01                	push   $0x1
  ee:	e8 5d 04 00 00       	call   550 <printf>
            exit();
  f3:	e8 5b 02 00 00       	call   353 <exit>
  f8:	66 90                	xchg   %ax,%ax
  fa:	66 90                	xchg   %ax,%ax
  fc:	66 90                	xchg   %ax,%ax
  fe:	66 90                	xchg   %ax,%ax

00000100 <strcpy>:
#include "user.h"
#include "x86.h"

char*
strcpy(char *s, const char *t)
{
 100:	55                   	push   %ebp
  char *os;

  os = s;
  while((*s++ = *t++) != 0)
 101:	31 c0                	xor    %eax,%eax
{
 103:	89 e5                	mov    %esp,%ebp
 105:	53                   	push   %ebx
 106:	8b 4d 08             	mov    0x8(%ebp),%ecx
 109:	8b 5d 0c             	mov    0xc(%ebp),%ebx
 10c:	8d 74 26 00          	lea    0x0(%esi,%eiz,1),%esi
  while((*s++ = *t++) != 0)
 110:	0f b6 14 03          	movzbl (%ebx,%eax,1),%edx
 114:	88 14 01             	mov    %dl,(%ecx,%eax,1)
 117:	83 c0 01             	add    $0x1,%eax
 11a:	84 d2                	test   %dl,%dl
 11c:	75 f2                	jne    110 <strcpy+0x10>
    ;
  return os;
}
 11e:	8b 5d fc             	mov    -0x4(%ebp),%ebx
 121:	89 c8                	mov    %ecx,%eax
 123:	c9                   	leave  
 124:	c3                   	ret    
 125:	8d b4 26 00 00 00 00 	lea    0x0(%esi,%eiz,1),%esi
 12c:	8d 74 26 00          	lea    0x0(%esi,%eiz,1),%esi

00000130 <strcmp>:

int
strcmp(const char *p, const char *q)
{
 130:	55                   	push   %ebp
 131:	89 e5                	mov    %esp,%ebp
 133:	53                   	push   %ebx
 134:	8b 55 08             	mov    0x8(%ebp),%edx
 137:	8b 4d 0c             	mov    0xc(%ebp),%ecx
  while(*p && *p == *q)
 13a:	0f b6 02             	movzbl (%edx),%eax
 13d:	84 c0                	test   %al,%al
 13f:	75 17                	jne    158 <strcmp+0x28>
 141:	eb 3a                	jmp    17d <strcmp+0x4d>
 143:	8d 74 26 00          	lea    0x0(%esi,%eiz,1),%esi
 147:	90                   	nop
 148:	0f b6 42 01          	movzbl 0x1(%edx),%eax
    p++, q++;
 14c:	83 c2 01             	add    $0x1,%edx
 14f:	8d 59 01             	lea    0x1(%ecx),%ebx
  while(*p && *p == *q)
 152:	84 c0                	test   %al,%al
 154:	74 1a                	je     170 <strcmp+0x40>
    p++, q++;
 156:	89 d9                	mov    %ebx,%ecx
  while(*p && *p == *q)
 158:	0f b6 19             	movzbl (%ecx),%ebx
 15b:	38 c3                	cmp    %al,%bl
 15d:	74 e9                	je     148 <strcmp+0x18>
  return (uchar)*p - (uchar)*q;
 15f:	29 d8                	sub    %ebx,%eax
}
 161:	8b 5d fc             	mov    -0x4(%ebp),%ebx
 164:	c9                   	leave  
 165:	c3                   	ret    
 166:	8d b4 26 00 00 00 00 	lea    0x0(%esi,%eiz,1),%esi
 16d:	8d 76 00             	lea    0x0(%esi),%esi
  return (uchar)*p - (uchar)*q;
 170:	0f b6 59 01          	movzbl 0x1(%ecx),%ebx
 174:	31 c0                	xor    %eax,%eax
 176:	29 d8                	sub    %ebx,%eax
}
 178:	8b 5d fc             	mov    -0x4(%ebp),%ebx
 17b:	c9                   	leave  
 17c:	c3                   	ret    
  return (uchar)*p - (uchar)*q;
 17d:	0f b6 19             	movzbl (%ecx),%ebx
 180:	31 c0                	xor    %eax,%eax
 182:	eb db                	jmp    15f <strcmp+0x2f>
 184:	8d b4 26 00 00 00 00 	lea    0x0(%esi,%eiz,1),%esi
 18b:	8d 74 26 00          	lea    0x0(%esi,%eiz,1),%esi
 18f:	90                   	nop

00000190 <strlen>:

uint
strlen(const char *s)
{
 190:	55                   	push   %ebp
 191:	89 e5                	mov    %esp,%ebp
 193:	8b 55 08             	mov    0x8(%ebp),%edx
  int n;

  for(n = 0; s[n]; n++)
 196:	80 3a 00             	cmpb   $0x0,(%edx)
 199:	74 15                	je     1b0 <strlen+0x20>
 19b:	31 c0                	xor    %eax,%eax
 19d:	8d 76 00             	lea    0x0(%esi),%esi
 1a0:	83 c0 01             	add    $0x1,%eax
 1a3:	80 3c 02 00          	cmpb   $0x0,(%edx,%eax,1)
 1a7:	89 c1                	mov    %eax,%ecx
 1a9:	75 f5                	jne    1a0 <strlen+0x10>
    ;
  return n;
}
 1ab:	89 c8                	mov    %ecx,%eax
 1ad:	5d                   	pop    %ebp
 1ae:	c3                   	ret    
 1af:	90                   	nop
  for(n = 0; s[n]; n++)
 1b0:	31 c9                	xor    %ecx,%ecx
}
 1b2:	5d                   	pop    %ebp
 1b3:	89 c8                	mov    %ecx,%eax
 1b5:	c3                   	ret    
 1b6:	8d b4 26 00 00 00 00 	lea    0x0(%esi,%eiz,1),%esi
 1bd:	8d 76 00             	lea    0x0(%esi),%esi

000001c0 <memset>:

void*
memset(void *dst, int c, uint n)
{
 1c0:	55                   	push   %ebp
 1c1:	89 e5                	mov    %esp,%ebp
 1c3:	57                   	push   %edi
 1c4:	8b 55 08             	mov    0x8(%ebp),%edx
}

static inline void
stosb(void *addr, int data, int cnt)
{
  asm volatile("cld; rep stosb" :
 1c7:	8b 4d 10             	mov    0x10(%ebp),%ecx
 1ca:	8b 45 0c             	mov    0xc(%ebp),%eax
 1cd:	89 d7                	mov    %edx,%edi
 1cf:	fc                   	cld    
 1d0:	f3 aa                	rep stos %al,%es:(%edi)
  stosb(dst, c, n);
  return dst;
}
 1d2:	8b 7d fc             	mov    -0x4(%ebp),%edi
 1d5:	89 d0                	mov    %edx,%eax
 1d7:	c9                   	leave  
 1d8:	c3                   	ret    
 1d9:	8d b4 26 00 00 00 00 	lea    0x0(%esi,%eiz,1),%esi

000001e0 <strchr>:

char*
strchr(const char *s, char c)
{
 1e0:	55                   	push   %ebp
 1e1:	89 e5                	mov    %esp,%ebp
 1e3:	8b 45 08             	mov    0x8(%ebp),%eax
 1e6:	0f b6 4d 0c          	movzbl 0xc(%ebp),%ecx
  for(; *s; s++)
 1ea:	0f b6 10             	movzbl (%eax),%edx
 1ed:	84 d2                	test   %dl,%dl
 1ef:	75 12                	jne    203 <strchr+0x23>
 1f1:	eb 1d                	jmp    210 <strchr+0x30>
 1f3:	8d 74 26 00          	lea    0x0(%esi,%eiz,1),%esi
 1f7:	90                   	nop
 1f8:	0f b6 50 01          	movzbl 0x1(%eax),%edx
 1fc:	83 c0 01             	add    $0x1,%eax
 1ff:	84 d2                	test   %dl,%dl
 201:	74 0d                	je     210 <strchr+0x30>
    if(*s == c)
 203:	38 d1                	cmp    %dl,%cl
 205:	75 f1                	jne    1f8 <strchr+0x18>
      return (char*)s;
  return 0;
}
 207:	5d                   	pop    %ebp
 208:	c3                   	ret    
 209:	8d b4 26 00 00 00 00 	lea    0x0(%esi,%eiz,1),%esi
  return 0;
 210:	31 c0                	xor    %eax,%eax
}
 212:	5d                   	pop    %ebp
 213:	c3                   	ret    
 214:	8d b4 26 00 00 00 00 	lea    0x0(%esi,%eiz,1),%esi
 21b:	8d 74 26 00          	lea    0x0(%esi,%eiz,1),%esi
 21f:	90                   	nop

00000220 <gets>:

char*
gets(char *buf, int max)
{
 220:	55                   	push   %ebp
 221:	89 e5                	mov    %esp,%ebp
 223:	57                   	push   %edi
 224:	56                   	push   %esi
  int i, cc;
  char c;

  for(i=0; i+1 < max; ){
    cc = read(0, &c, 1);
 225:	8d 7d e7             	lea    -0x19(%ebp),%edi
{
 228:	53                   	push   %ebx
  for(i=0; i+1 < max; ){
 229:	31 db                	xor    %ebx,%ebx
{
 22b:	83 ec 1c             	sub    $0x1c,%esp
  for(i=0; i+1 < max; ){
 22e:	eb 27                	jmp    257 <gets+0x37>
    cc = read(0, &c, 1);
 230:	83 ec 04             	sub    $0x4,%esp
 233:	6a 01                	push   $0x1
 235:	57                   	push   %edi
 236:	6a 00                	push   $0x0
 238:	e8 2e 01 00 00       	call   36b <read>
    if(cc < 1)
 23d:	83 c4 10             	add    $0x10,%esp
 240:	85 c0                	test   %eax,%eax
 242:	7e 1d                	jle    261 <gets+0x41>
      break;
    buf[i++] = c;
 244:	0f b6 45 e7          	movzbl -0x19(%ebp),%eax
 248:	8b 55 08             	mov    0x8(%ebp),%edx
 24b:	88 44 1a ff          	mov    %al,-0x1(%edx,%ebx,1)
    if(c == '\n' || c == '\r')
 24f:	3c 0a                	cmp    $0xa,%al
 251:	74 1d                	je     270 <gets+0x50>
 253:	3c 0d                	cmp    $0xd,%al
 255:	74 19                	je     270 <gets+0x50>
  for(i=0; i+1 < max; ){
 257:	89 de                	mov    %ebx,%esi
 259:	83 c3 01             	add    $0x1,%ebx
 25c:	3b 5d 0c             	cmp    0xc(%ebp),%ebx
 25f:	7c cf                	jl     230 <gets+0x10>
      break;
  }
  buf[i] = '\0';
 261:	8b 45 08             	mov    0x8(%ebp),%eax
 264:	c6 04 30 00          	movb   $0x0,(%eax,%esi,1)
  return buf;
}
 268:	8d 65 f4             	lea    -0xc(%ebp),%esp
 26b:	5b                   	pop    %ebx
 26c:	5e                   	pop    %esi
 26d:	5f                   	pop    %edi
 26e:	5d                   	pop    %ebp
 26f:	c3                   	ret    
  buf[i] = '\0';
 270:	8b 45 08             	mov    0x8(%ebp),%eax
 273:	89 de                	mov    %ebx,%esi
 275:	c6 04 30 00          	movb   $0x0,(%eax,%esi,1)
}
 279:	8d 65 f4             	lea    -0xc(%ebp),%esp
 27c:	5b                   	pop    %ebx
 27d:	5e                   	pop    %esi
 27e:	5f                   	pop    %edi
 27f:	5d                   	pop    %ebp
 280:	c3                   	ret    
 281:	8d b4 26 00 00 00 00 	lea    0x0(%esi,%eiz,1),%esi
 288:	8d b4 26 00 00 00 00 	lea    0x0(%esi,%eiz,1),%esi
 28f:	90                   	nop

00000290 <stat>:

int
stat(const char *n, struct stat *st)
{
 290:	55                   	push   %ebp
 291:	89 e5                	mov    %esp,%ebp
 293:	56                   	push   %esi
 294:	53                   	push   %ebx
  int fd;
  int r;

  fd = open(n, O_RDONLY);
 295:	83 ec 08             	sub    $0x8,%esp
 298:	6a 00                	push   $0x0
 29a:	ff 75 08             	push   0x8(%ebp)
 29d:	e8 f1 00 00 00       	call   393 <open>
  if(fd < 0)
 2a2:	83 c4 10             	add    $0x10,%esp
 2a5:	85 c0                	test   %eax,%eax
 2a7:	78 27                	js     2d0 <stat+0x40>
    return -1;
  r = fstat(fd, st);
 2a9:	83 ec 08             	sub    $0x8,%esp
 2ac:	ff 75 0c             	push   0xc(%ebp)
 2af:	89 c3                	mov    %eax,%ebx
 2b1:	50                   	push   %eax
 2b2:	e8 f4 00 00 00       	call   3ab <fstat>
  close(fd);
 2b7:	89 1c 24             	mov    %ebx,(%esp)
  r = fstat(fd, st);
 2ba:	89 c6                	mov    %eax,%esi
  close(fd);
 2bc:	e8 ba 00 00 00       	call   37b <close>
  return r;
 2c1:	83 c4 10             	add    $0x10,%esp
}
 2c4:	8d 65 f8             	lea    -0x8(%ebp),%esp
 2c7:	89 f0                	mov    %esi,%eax
 2c9:	5b                   	pop    %ebx
 2ca:	5e                   	pop    %esi
 2cb:	5d                   	pop    %ebp
 2cc:	c3                   	ret    
 2cd:	8d 76 00             	lea    0x0(%esi),%esi
    return -1;
 2d0:	be ff ff ff ff       	mov    $0xffffffff,%esi
 2d5:	eb ed                	jmp    2c4 <stat+0x34>
 2d7:	8d b4 26 00 00 00 00 	lea    0x0(%esi,%eiz,1),%esi
 2de:	66 90                	xchg   %ax,%ax

000002e0 <atoi>:

int
atoi(const char *s)
{
 2e0:	55                   	push   %ebp
 2e1:	89 e5                	mov    %esp,%ebp
 2e3:	53                   	push   %ebx
 2e4:	8b 55 08             	mov    0x8(%ebp),%edx
  int n;

  n = 0;
  while('0' <= *s && *s <= '9')
 2e7:	0f be 02             	movsbl (%edx),%eax
 2ea:	8d 48 d0             	lea    -0x30(%eax),%ecx
 2ed:	80 f9 09             	cmp    $0x9,%cl
  n = 0;
 2f0:	b9 00 00 00 00       	mov    $0x0,%ecx
  while('0' <= *s && *s <= '9')
 2f5:	77 1e                	ja     315 <atoi+0x35>
 2f7:	8d b4 26 00 00 00 00 	lea    0x0(%esi,%eiz,1),%esi
 2fe:	66 90                	xchg   %ax,%ax
    n = n*10 + *s++ - '0';
 300:	83 c2 01             	add    $0x1,%edx
 303:	8d 0c 89             	lea    (%ecx,%ecx,4),%ecx
 306:	8d 4c 48 d0          	lea    -0x30(%eax,%ecx,2),%ecx
  while('0' <= *s && *s <= '9')
 30a:	0f be 02             	movsbl (%edx),%eax
 30d:	8d 58 d0             	lea    -0x30(%eax),%ebx
 310:	80 fb 09             	cmp    $0x9,%bl
 313:	76 eb                	jbe    300 <atoi+0x20>
  return n;
}
 315:	8b 5d fc             	mov    -0x4(%ebp),%ebx
 318:	89 c8                	mov    %ecx,%eax
 31a:	c9                   	leave  
 31b:	c3                   	ret    
 31c:	8d 74 26 00          	lea    0x0(%esi,%eiz,1),%esi

00000320 <memmove>:

void*
memmove(void *vdst, const void *vsrc, int n)
{
 320:	55                   	push   %ebp
 321:	89 e5                	mov    %esp,%ebp
 323:	57                   	push   %edi
 324:	8b 45 10             	mov    0x10(%ebp),%eax
 327:	8b 55 08             	mov    0x8(%ebp),%edx
 32a:	56                   	push   %esi
 32b:	8b 75 0c             	mov    0xc(%ebp),%esi
  char *dst;
  const char *src;

  dst = vdst;
  src = vsrc;
  while(n-- > 0)
 32e:	85 c0                	test   %eax,%eax
 330:	7e 13                	jle    345 <memmove+0x25>
 332:	01 d0                	add    %edx,%eax
  dst = vdst;
 334:	89 d7                	mov    %edx,%edi
 336:	8d b4 26 00 00 00 00 	lea    0x0(%esi,%eiz,1),%esi
 33d:	8d 76 00             	lea    0x0(%esi),%esi
    *dst++ = *src++;
 340:	a4                   	movsb  %ds:(%esi),%es:(%edi)
  while(n-- > 0)
 341:	39 f8                	cmp    %edi,%eax
 343:	75 fb                	jne    340 <memmove+0x20>
  return vdst;
}
 345:	5e                   	pop    %esi
 346:	89 d0                	mov    %edx,%eax
 348:	5f                   	pop    %edi
 349:	5d                   	pop    %ebp
 34a:	c3                   	ret    

0000034b <fork>:
  name: \
    movl $SYS_ ## name, %eax; \
    int $T_SYSCALL; \
    ret

SYSCALL(fork)
 34b:	b8 01 00 00 00       	mov    $0x1,%eax
 350:	cd 40                	int    $0x40
 352:	c3                   	ret    

00000353 <exit>:
SYSCALL(exit)
 353:	b8 02 00 00 00       	mov    $0x2,%eax
 358:	cd 40                	int    $0x40
 35a:	c3                   	ret    

0000035b <wait>:
SYSCALL(wait)
 35b:	b8 03 00 00 00       	mov    $0x3,%eax
 360:	cd 40                	int    $0x40
 362:	c3                   	ret    

00000363 <pipe>:
SYSCALL(pipe)
 363:	b8 04 00 00 00       	mov    $0x4,%eax
 368:	cd 40                	int    $0x40
 36a:	c3                   	ret    

0000036b <read>:
SYSCALL(read)
 36b:	b8 05 00 00 00       	mov    $0x5,%eax
 370:	cd 40                	int    $0x40
 372:	c3                   	ret    

00000373 <write>:
SYSCALL(write)
 373:	b8 10 00 00 00       	mov    $0x10,%eax
 378:	cd 40                	int    $0x40
 37a:	c3                   	ret    

0000037b <close>:
SYSCALL(close)
 37b:	b8 15 00 00 00       	mov    $0x15,%eax
 380:	cd 40                	int    $0x40
 382:	c3                   	ret    

00000383 <kill>:
SYSCALL(kill)
 383:	b8 06 00 00 00       	mov    $0x6,%eax
 388:	cd 40                	int    $0x40
 38a:	c3                   	ret    

0000038b <exec>:
SYSCALL(exec)
 38b:	b8 07 00 00 00       	mov    $0x7,%eax
 390:	cd 40                	int    $0x40
 392:	c3                   	ret    

00000393 <open>:
SYSCALL(open)
 393:	b8 0f 00 00 00       	mov    $0xf,%eax
 398:	cd 40                	int    $0x40
 39a:	c3                   	ret    

0000039b <mknod>:
SYSCALL(mknod)
 39b:	b8 11 00 00 00       	mov    $0x11,%eax
 3a0:	cd 40                	int    $0x40
 3a2:	c3                   	ret    

000003a3 <unlink>:
SYSCALL(unlink)
 3a3:	b8 12 00 00 00       	mov    $0x12,%eax
 3a8:	cd 40                	int    $0x40
 3aa:	c3                   	ret    

000003ab <fstat>:
SYSCALL(fstat)
 3ab:	b8 08 00 00 00       	mov    $0x8,%eax
 3b0:	cd 40                	int    $0x40
 3b2:	c3                   	ret    

000003b3 <link>:
SYSCALL(link)
 3b3:	b8 13 00 00 00       	mov    $0x13,%eax
 3b8:	cd 40                	int    $0x40
 3ba:	c3                   	ret    

000003bb <mkdir>:
SYSCALL(mkdir)
 3bb:	b8 14 00 00 00       	mov    $0x14,%eax
 3c0:	cd 40                	int    $0x40
 3c2:	c3                   	ret    

000003c3 <chdir>:
SYSCALL(chdir)
 3c3:	b8 09 00 00 00       	mov    $0x9,%eax
 3c8:	cd 40                	int    $0x40
 3ca:	c3                   	ret    

000003cb <dup>:
SYSCALL(dup)
 3cb:	b8 0a 00 00 00       	mov    $0xa,%eax
 3d0:	cd 40                	int    $0x40
 3d2:	c3                   	ret    

000003d3 <getpid>:
SYSCALL(getpid)
 3d3:	b8 0b 00 00 00       	mov    $0xb,%eax
 3d8:	cd 40                	int    $0x40
 3da:	c3                   	ret    

000003db <sbrk>:
SYSCALL(sbrk)
 3db:	b8 0c 00 00 00       	mov    $0xc,%eax
 3e0:	cd 40                	int    $0x40
 3e2:	c3                   	ret    

000003e3 <sleep>:
SYSCALL(sleep)
 3e3:	b8 0d 00 00 00       	mov    $0xd,%eax
 3e8:	cd 40                	int    $0x40
 3ea:	c3                   	ret    

000003eb <uptime>:
SYSCALL(uptime)
 3eb:	b8 0e 00 00 00       	mov    $0xe,%eax
 3f0:	cd 40                	int    $0x40
 3f2:	c3                   	ret    

000003f3 <hello>:
SYSCALL(hello)
 3f3:	b8 16 00 00 00       	mov    $0x16,%eax
 3f8:	cd 40                	int    $0x40
 3fa:	c3                   	ret    

000003fb <helloYou>:
SYSCALL(helloYou)
 3fb:	b8 17 00 00 00       	mov    $0x17,%eax
 400:	cd 40                	int    $0x40
 402:	c3                   	ret    

00000403 <getppid>:
SYSCALL(getppid)
 403:	b8 18 00 00 00       	mov    $0x18,%eax
 408:	cd 40                	int    $0x40
 40a:	c3                   	ret    

0000040b <get_siblings_info>:
SYSCALL(get_siblings_info)
 40b:	b8 19 00 00 00       	mov    $0x19,%eax
 410:	cd 40                	int    $0x40
 412:	c3                   	ret    

00000413 <signalProcess>:
SYSCALL(signalProcess)
 413:	b8 1a 00 00 00       	mov    $0x1a,%eax
 418:	cd 40                	int    $0x40
 41a:	c3                   	ret    

0000041b <numvp>:
SYSCALL(numvp)
 41b:	b8 1b 00 00 00       	mov    $0x1b,%eax
 420:	cd 40                	int    $0x40
 422:	c3                   	ret    

00000423 <numpp>:
SYSCALL(numpp)
 423:	b8 1c 00 00 00       	mov    $0x1c,%eax
 428:	cd 40                	int    $0x40
 42a:	c3                   	ret    

0000042b <init_counter>:

SYSCALL(init_counter)
 42b:	b8 1d 00 00 00       	mov    $0x1d,%eax
 430:	cd 40                	int    $0x40
 432:	c3                   	ret    

00000433 <update_cnt>:
SYSCALL(update_cnt)
 433:	b8 1e 00 00 00       	mov    $0x1e,%eax
 438:	cd 40                	int    $0x40
 43a:	c3                   	ret    

0000043b <display_count>:
SYSCALL(display_count)
 43b:	b8 1f 00 00 00       	mov    $0x1f,%eax
 440:	cd 40                	int    $0x40
 442:	c3                   	ret    

00000443 <init_counter_1>:
SYSCALL(init_counter_1)
 443:	b8 20 00 00 00       	mov    $0x20,%eax
 448:	cd 40                	int    $0x40
 44a:	c3                   	ret    

0000044b <update_cnt_1>:
SYSCALL(update_cnt_1)
 44b:	b8 21 00 00 00       	mov    $0x21,%eax
 450:	cd 40                	int    $0x40
 452:	c3                   	ret    

00000453 <display_count_1>:
SYSCALL(display_count_1)
 453:	b8 22 00 00 00       	mov    $0x22,%eax
 458:	cd 40                	int    $0x40
 45a:	c3                   	ret    

0000045b <init_counter_2>:
SYSCALL(init_counter_2)
 45b:	b8 23 00 00 00       	mov    $0x23,%eax
 460:	cd 40                	int    $0x40
 462:	c3                   	ret    

00000463 <update_cnt_2>:
SYSCALL(update_cnt_2)
 463:	b8 24 00 00 00       	mov    $0x24,%eax
 468:	cd 40                	int    $0x40
 46a:	c3                   	ret    

0000046b <display_count_2>:
SYSCALL(display_count_2)
 46b:	b8 25 00 00 00       	mov    $0x25,%eax
 470:	cd 40                	int    $0x40
 472:	c3                   	ret    

00000473 <init_mylock>:
SYSCALL(init_mylock)
 473:	b8 26 00 00 00       	mov    $0x26,%eax
 478:	cd 40                	int    $0x40
 47a:	c3                   	ret    

0000047b <acquire_mylock>:
SYSCALL(acquire_mylock)
 47b:	b8 27 00 00 00       	mov    $0x27,%eax
 480:	cd 40                	int    $0x40
 482:	c3                   	ret    

00000483 <release_mylock>:
SYSCALL(release_mylock)
 483:	b8 28 00 00 00       	mov    $0x28,%eax
 488:	cd 40                	int    $0x40
 48a:	c3                   	ret    

0000048b <holding_mylock>:
 48b:	b8 29 00 00 00       	mov    $0x29,%eax
 490:	cd 40                	int    $0x40
 492:	c3                   	ret    
 493:	66 90                	xchg   %ax,%ax
 495:	66 90                	xchg   %ax,%ax
 497:	66 90                	xchg   %ax,%ax
 499:	66 90                	xchg   %ax,%ax
 49b:	66 90                	xchg   %ax,%ax
 49d:	66 90                	xchg   %ax,%ax
 49f:	90                   	nop

000004a0 <printint>:
  write(fd, &c, 1);
}

static void
printint(int fd, int xx, int base, int sgn)
{
 4a0:	55                   	push   %ebp
 4a1:	89 e5                	mov    %esp,%ebp
 4a3:	57                   	push   %edi
 4a4:	56                   	push   %esi
 4a5:	53                   	push   %ebx
 4a6:	83 ec 3c             	sub    $0x3c,%esp
 4a9:	89 4d c4             	mov    %ecx,-0x3c(%ebp)
  uint x;

  neg = 0;
  if(sgn && xx < 0){
    neg = 1;
    x = -xx;
 4ac:	89 d1                	mov    %edx,%ecx
{
 4ae:	89 45 b8             	mov    %eax,-0x48(%ebp)
  if(sgn && xx < 0){
 4b1:	85 d2                	test   %edx,%edx
 4b3:	0f 89 7f 00 00 00    	jns    538 <printint+0x98>
 4b9:	f6 45 08 01          	testb  $0x1,0x8(%ebp)
 4bd:	74 79                	je     538 <printint+0x98>
    neg = 1;
 4bf:	c7 45 bc 01 00 00 00 	movl   $0x1,-0x44(%ebp)
    x = -xx;
 4c6:	f7 d9                	neg    %ecx
  } else {
    x = xx;
  }

  i = 0;
 4c8:	31 db                	xor    %ebx,%ebx
 4ca:	8d 75 d7             	lea    -0x29(%ebp),%esi
 4cd:	8d 76 00             	lea    0x0(%esi),%esi
  do{
    buf[i++] = digits[x % base];
 4d0:	89 c8                	mov    %ecx,%eax
 4d2:	31 d2                	xor    %edx,%edx
 4d4:	89 cf                	mov    %ecx,%edi
 4d6:	f7 75 c4             	divl   -0x3c(%ebp)
 4d9:	0f b6 92 f8 08 00 00 	movzbl 0x8f8(%edx),%edx
 4e0:	89 45 c0             	mov    %eax,-0x40(%ebp)
 4e3:	89 d8                	mov    %ebx,%eax
 4e5:	8d 5b 01             	lea    0x1(%ebx),%ebx
  }while((x /= base) != 0);
 4e8:	8b 4d c0             	mov    -0x40(%ebp),%ecx
    buf[i++] = digits[x % base];
 4eb:	88 14 1e             	mov    %dl,(%esi,%ebx,1)
  }while((x /= base) != 0);
 4ee:	39 7d c4             	cmp    %edi,-0x3c(%ebp)
 4f1:	76 dd                	jbe    4d0 <printint+0x30>
  if(neg)
 4f3:	8b 4d bc             	mov    -0x44(%ebp),%ecx
 4f6:	85 c9                	test   %ecx,%ecx
 4f8:	74 0c                	je     506 <printint+0x66>
    buf[i++] = '-';
 4fa:	c6 44 1d d8 2d       	movb   $0x2d,-0x28(%ebp,%ebx,1)
    buf[i++] = digits[x % base];
 4ff:	89 d8                	mov    %ebx,%eax
    buf[i++] = '-';
 501:	ba 2d 00 00 00       	mov    $0x2d,%edx

  while(--i >= 0)
 506:	8b 7d b8             	mov    -0x48(%ebp),%edi
 509:	8d 5c 05 d7          	lea    -0x29(%ebp,%eax,1),%ebx
 50d:	eb 07                	jmp    516 <printint+0x76>
 50f:	90                   	nop
    putc(fd, buf[i]);
 510:	0f b6 13             	movzbl (%ebx),%edx
 513:	83 eb 01             	sub    $0x1,%ebx
  write(fd, &c, 1);
 516:	83 ec 04             	sub    $0x4,%esp
 519:	88 55 d7             	mov    %dl,-0x29(%ebp)
 51c:	6a 01                	push   $0x1
 51e:	56                   	push   %esi
 51f:	57                   	push   %edi
 520:	e8 4e fe ff ff       	call   373 <write>
  while(--i >= 0)
 525:	83 c4 10             	add    $0x10,%esp
 528:	39 de                	cmp    %ebx,%esi
 52a:	75 e4                	jne    510 <printint+0x70>
}
 52c:	8d 65 f4             	lea    -0xc(%ebp),%esp
 52f:	5b                   	pop    %ebx
 530:	5e                   	pop    %esi
 531:	5f                   	pop    %edi
 532:	5d                   	pop    %ebp
 533:	c3                   	ret    
 534:	8d 74 26 00          	lea    0x0(%esi,%eiz,1),%esi
  neg = 0;
 538:	c7 45 bc 00 00 00 00 	movl   $0x0,-0x44(%ebp)
 53f:	eb 87                	jmp    4c8 <printint+0x28>
 541:	8d b4 26 00 00 00 00 	lea    0x0(%esi,%eiz,1),%esi
 548:	8d b4 26 00 00 00 00 	lea    0x0(%esi,%eiz,1),%esi
 54f:	90                   	nop

00000550 <printf>:

// Print to the given fd. Only understands %d, %x, %p, %s.
void
printf(int fd, const char *fmt, ...)
{
 550:	55                   	push   %ebp
 551:	89 e5                	mov    %esp,%ebp
 553:	57                   	push   %edi
 554:	56                   	push   %esi
 555:	53                   	push   %ebx
 556:	83 ec 2c             	sub    $0x2c,%esp
  int c, i, state;
  uint *ap;

  state = 0;
  ap = (uint*)(void*)&fmt + 1;
  for(i = 0; fmt[i]; i++){
 559:	8b 5d 0c             	mov    0xc(%ebp),%ebx
{
 55c:	8b 75 08             	mov    0x8(%ebp),%esi
  for(i = 0; fmt[i]; i++){
 55f:	0f b6 13             	movzbl (%ebx),%edx
 562:	84 d2                	test   %dl,%dl
 564:	74 6a                	je     5d0 <printf+0x80>
  ap = (uint*)(void*)&fmt + 1;
 566:	8d 45 10             	lea    0x10(%ebp),%eax
 569:	83 c3 01             	add    $0x1,%ebx
  write(fd, &c, 1);
 56c:	8d 7d e7             	lea    -0x19(%ebp),%edi
  state = 0;
 56f:	31 c9                	xor    %ecx,%ecx
  ap = (uint*)(void*)&fmt + 1;
 571:	89 45 d0             	mov    %eax,-0x30(%ebp)
 574:	eb 36                	jmp    5ac <printf+0x5c>
 576:	8d b4 26 00 00 00 00 	lea    0x0(%esi,%eiz,1),%esi
 57d:	8d 76 00             	lea    0x0(%esi),%esi
 580:	89 4d d4             	mov    %ecx,-0x2c(%ebp)
    c = fmt[i] & 0xff;
    if(state == 0){
      if(c == '%'){
        state = '%';
 583:	b9 25 00 00 00       	mov    $0x25,%ecx
      if(c == '%'){
 588:	83 f8 25             	cmp    $0x25,%eax
 58b:	74 15                	je     5a2 <printf+0x52>
  write(fd, &c, 1);
 58d:	83 ec 04             	sub    $0x4,%esp
 590:	88 55 e7             	mov    %dl,-0x19(%ebp)
 593:	6a 01                	push   $0x1
 595:	57                   	push   %edi
 596:	56                   	push   %esi
 597:	e8 d7 fd ff ff       	call   373 <write>
 59c:	8b 4d d4             	mov    -0x2c(%ebp),%ecx
      } else {
        putc(fd, c);
 59f:	83 c4 10             	add    $0x10,%esp
  for(i = 0; fmt[i]; i++){
 5a2:	0f b6 13             	movzbl (%ebx),%edx
 5a5:	83 c3 01             	add    $0x1,%ebx
 5a8:	84 d2                	test   %dl,%dl
 5aa:	74 24                	je     5d0 <printf+0x80>
    c = fmt[i] & 0xff;
 5ac:	0f b6 c2             	movzbl %dl,%eax
    if(state == 0){
 5af:	85 c9                	test   %ecx,%ecx
 5b1:	74 cd                	je     580 <printf+0x30>
      }
    } else if(state == '%'){
 5b3:	83 f9 25             	cmp    $0x25,%ecx
 5b6:	75 ea                	jne    5a2 <printf+0x52>
      if(c == 'd'){
 5b8:	83 f8 25             	cmp    $0x25,%eax
 5bb:	0f 84 07 01 00 00    	je     6c8 <printf+0x178>
 5c1:	83 e8 63             	sub    $0x63,%eax
 5c4:	83 f8 15             	cmp    $0x15,%eax
 5c7:	77 17                	ja     5e0 <printf+0x90>
 5c9:	ff 24 85 a0 08 00 00 	jmp    *0x8a0(,%eax,4)
        putc(fd, c);
      }
      state = 0;
    }
  }
}
 5d0:	8d 65 f4             	lea    -0xc(%ebp),%esp
 5d3:	5b                   	pop    %ebx
 5d4:	5e                   	pop    %esi
 5d5:	5f                   	pop    %edi
 5d6:	5d                   	pop    %ebp
 5d7:	c3                   	ret    
 5d8:	8d b4 26 00 00 00 00 	lea    0x0(%esi,%eiz,1),%esi
 5df:	90                   	nop
  write(fd, &c, 1);
 5e0:	83 ec 04             	sub    $0x4,%esp
 5e3:	88 55 d4             	mov    %dl,-0x2c(%ebp)
 5e6:	6a 01                	push   $0x1
 5e8:	57                   	push   %edi
 5e9:	56                   	push   %esi
 5ea:	c6 45 e7 25          	movb   $0x25,-0x19(%ebp)
 5ee:	e8 80 fd ff ff       	call   373 <write>
        putc(fd, c);
 5f3:	0f b6 55 d4          	movzbl -0x2c(%ebp),%edx
  write(fd, &c, 1);
 5f7:	83 c4 0c             	add    $0xc,%esp
 5fa:	88 55 e7             	mov    %dl,-0x19(%ebp)
 5fd:	6a 01                	push   $0x1
 5ff:	57                   	push   %edi
 600:	56                   	push   %esi
 601:	e8 6d fd ff ff       	call   373 <write>
        putc(fd, c);
 606:	83 c4 10             	add    $0x10,%esp
      state = 0;
 609:	31 c9                	xor    %ecx,%ecx
 60b:	eb 95                	jmp    5a2 <printf+0x52>
 60d:	8d 76 00             	lea    0x0(%esi),%esi
        printint(fd, *ap, 16, 0);
 610:	83 ec 0c             	sub    $0xc,%esp
 613:	b9 10 00 00 00       	mov    $0x10,%ecx
 618:	6a 00                	push   $0x0
 61a:	8b 45 d0             	mov    -0x30(%ebp),%eax
 61d:	8b 10                	mov    (%eax),%edx
 61f:	89 f0                	mov    %esi,%eax
 621:	e8 7a fe ff ff       	call   4a0 <printint>
        ap++;
 626:	83 45 d0 04          	addl   $0x4,-0x30(%ebp)
 62a:	83 c4 10             	add    $0x10,%esp
      state = 0;
 62d:	31 c9                	xor    %ecx,%ecx
 62f:	e9 6e ff ff ff       	jmp    5a2 <printf+0x52>
 634:	8d 74 26 00          	lea    0x0(%esi,%eiz,1),%esi
        s = (char*)*ap;
 638:	8b 45 d0             	mov    -0x30(%ebp),%eax
 63b:	8b 10                	mov    (%eax),%edx
        ap++;
 63d:	83 c0 04             	add    $0x4,%eax
 640:	89 45 d0             	mov    %eax,-0x30(%ebp)
        if(s == 0)
 643:	85 d2                	test   %edx,%edx
 645:	0f 84 8d 00 00 00    	je     6d8 <printf+0x188>
        while(*s != 0){
 64b:	0f b6 02             	movzbl (%edx),%eax
      state = 0;
 64e:	31 c9                	xor    %ecx,%ecx
        while(*s != 0){
 650:	84 c0                	test   %al,%al
 652:	0f 84 4a ff ff ff    	je     5a2 <printf+0x52>
 658:	89 5d d4             	mov    %ebx,-0x2c(%ebp)
 65b:	89 d3                	mov    %edx,%ebx
 65d:	8d 76 00             	lea    0x0(%esi),%esi
  write(fd, &c, 1);
 660:	83 ec 04             	sub    $0x4,%esp
          s++;
 663:	83 c3 01             	add    $0x1,%ebx
 666:	88 45 e7             	mov    %al,-0x19(%ebp)
  write(fd, &c, 1);
 669:	6a 01                	push   $0x1
 66b:	57                   	push   %edi
 66c:	56                   	push   %esi
 66d:	e8 01 fd ff ff       	call   373 <write>
        while(*s != 0){
 672:	0f b6 03             	movzbl (%ebx),%eax
 675:	83 c4 10             	add    $0x10,%esp
 678:	84 c0                	test   %al,%al
 67a:	75 e4                	jne    660 <printf+0x110>
      state = 0;
 67c:	8b 5d d4             	mov    -0x2c(%ebp),%ebx
 67f:	31 c9                	xor    %ecx,%ecx
 681:	e9 1c ff ff ff       	jmp    5a2 <printf+0x52>
 686:	8d b4 26 00 00 00 00 	lea    0x0(%esi,%eiz,1),%esi
 68d:	8d 76 00             	lea    0x0(%esi),%esi
        printint(fd, *ap, 10, 1);
 690:	83 ec 0c             	sub    $0xc,%esp
 693:	b9 0a 00 00 00       	mov    $0xa,%ecx
 698:	6a 01                	push   $0x1
 69a:	e9 7b ff ff ff       	jmp    61a <printf+0xca>
 69f:	90                   	nop
        putc(fd, *ap);
 6a0:	8b 45 d0             	mov    -0x30(%ebp),%eax
  write(fd, &c, 1);
 6a3:	83 ec 04             	sub    $0x4,%esp
        putc(fd, *ap);
 6a6:	8b 00                	mov    (%eax),%eax
  write(fd, &c, 1);
 6a8:	6a 01                	push   $0x1
 6aa:	57                   	push   %edi
 6ab:	56                   	push   %esi
        putc(fd, *ap);
 6ac:	88 45 e7             	mov    %al,-0x19(%ebp)
  write(fd, &c, 1);
 6af:	e8 bf fc ff ff       	call   373 <write>
        ap++;
 6b4:	83 45 d0 04          	addl   $0x4,-0x30(%ebp)
 6b8:	83 c4 10             	add    $0x10,%esp
      state = 0;
 6bb:	31 c9                	xor    %ecx,%ecx
 6bd:	e9 e0 fe ff ff       	jmp    5a2 <printf+0x52>
 6c2:	8d b6 00 00 00 00    	lea    0x0(%esi),%esi
        putc(fd, c);
 6c8:	88 55 e7             	mov    %dl,-0x19(%ebp)
  write(fd, &c, 1);
 6cb:	83 ec 04             	sub    $0x4,%esp
 6ce:	e9 2a ff ff ff       	jmp    5fd <printf+0xad>
 6d3:	8d 74 26 00          	lea    0x0(%esi,%eiz,1),%esi
 6d7:	90                   	nop
          s = "(null)";
 6d8:	ba 96 08 00 00       	mov    $0x896,%edx
        while(*s != 0){
 6dd:	89 5d d4             	mov    %ebx,-0x2c(%ebp)
 6e0:	b8 28 00 00 00       	mov    $0x28,%eax
 6e5:	89 d3                	mov    %edx,%ebx
 6e7:	e9 74 ff ff ff       	jmp    660 <printf+0x110>
 6ec:	66 90                	xchg   %ax,%ax
 6ee:	66 90                	xchg   %ax,%ax

000006f0 <free>:
static Header base;
static Header *freep;

void
free(void *ap)
{
 6f0:	55                   	push   %ebp
  Header *bp, *p;

  bp = (Header*)ap - 1;
  for(p = freep; !(bp > p && bp < p->s.ptr); p = p->s.ptr)
 6f1:	a1 b0 0b 00 00       	mov    0xbb0,%eax
{
 6f6:	89 e5                	mov    %esp,%ebp
 6f8:	57                   	push   %edi
 6f9:	56                   	push   %esi
 6fa:	53                   	push   %ebx
 6fb:	8b 5d 08             	mov    0x8(%ebp),%ebx
  bp = (Header*)ap - 1;
 6fe:	8d 4b f8             	lea    -0x8(%ebx),%ecx
  for(p = freep; !(bp > p && bp < p->s.ptr); p = p->s.ptr)
 701:	8d b4 26 00 00 00 00 	lea    0x0(%esi,%eiz,1),%esi
 708:	89 c2                	mov    %eax,%edx
 70a:	8b 00                	mov    (%eax),%eax
 70c:	39 ca                	cmp    %ecx,%edx
 70e:	73 30                	jae    740 <free+0x50>
 710:	39 c1                	cmp    %eax,%ecx
 712:	72 04                	jb     718 <free+0x28>
    if(p >= p->s.ptr && (bp > p || bp < p->s.ptr))
 714:	39 c2                	cmp    %eax,%edx
 716:	72 f0                	jb     708 <free+0x18>
      break;
  if(bp + bp->s.size == p->s.ptr){
 718:	8b 73 fc             	mov    -0x4(%ebx),%esi
 71b:	8d 3c f1             	lea    (%ecx,%esi,8),%edi
 71e:	39 f8                	cmp    %edi,%eax
 720:	74 30                	je     752 <free+0x62>
    bp->s.size += p->s.ptr->s.size;
    bp->s.ptr = p->s.ptr->s.ptr;
 722:	89 43 f8             	mov    %eax,-0x8(%ebx)
  } else
    bp->s.ptr = p->s.ptr;
  if(p + p->s.size == bp){
 725:	8b 42 04             	mov    0x4(%edx),%eax
 728:	8d 34 c2             	lea    (%edx,%eax,8),%esi
 72b:	39 f1                	cmp    %esi,%ecx
 72d:	74 3a                	je     769 <free+0x79>
    p->s.size += bp->s.size;
    p->s.ptr = bp->s.ptr;
 72f:	89 0a                	mov    %ecx,(%edx)
  } else
    p->s.ptr = bp;
  freep = p;
}
 731:	5b                   	pop    %ebx
  freep = p;
 732:	89 15 b0 0b 00 00    	mov    %edx,0xbb0
}
 738:	5e                   	pop    %esi
 739:	5f                   	pop    %edi
 73a:	5d                   	pop    %ebp
 73b:	c3                   	ret    
 73c:	8d 74 26 00          	lea    0x0(%esi,%eiz,1),%esi
    if(p >= p->s.ptr && (bp > p || bp < p->s.ptr))
 740:	39 c2                	cmp    %eax,%edx
 742:	72 c4                	jb     708 <free+0x18>
 744:	39 c1                	cmp    %eax,%ecx
 746:	73 c0                	jae    708 <free+0x18>
  if(bp + bp->s.size == p->s.ptr){
 748:	8b 73 fc             	mov    -0x4(%ebx),%esi
 74b:	8d 3c f1             	lea    (%ecx,%esi,8),%edi
 74e:	39 f8                	cmp    %edi,%eax
 750:	75 d0                	jne    722 <free+0x32>
    bp->s.size += p->s.ptr->s.size;
 752:	03 70 04             	add    0x4(%eax),%esi
 755:	89 73 fc             	mov    %esi,-0x4(%ebx)
    bp->s.ptr = p->s.ptr->s.ptr;
 758:	8b 02                	mov    (%edx),%eax
 75a:	8b 00                	mov    (%eax),%eax
 75c:	89 43 f8             	mov    %eax,-0x8(%ebx)
  if(p + p->s.size == bp){
 75f:	8b 42 04             	mov    0x4(%edx),%eax
 762:	8d 34 c2             	lea    (%edx,%eax,8),%esi
 765:	39 f1                	cmp    %esi,%ecx
 767:	75 c6                	jne    72f <free+0x3f>
    p->s.size += bp->s.size;
 769:	03 43 fc             	add    -0x4(%ebx),%eax
  freep = p;
 76c:	89 15 b0 0b 00 00    	mov    %edx,0xbb0
    p->s.size += bp->s.size;
 772:	89 42 04             	mov    %eax,0x4(%edx)
    p->s.ptr = bp->s.ptr;
 775:	8b 4b f8             	mov    -0x8(%ebx),%ecx
 778:	89 0a                	mov    %ecx,(%edx)
}
 77a:	5b                   	pop    %ebx
 77b:	5e                   	pop    %esi
 77c:	5f                   	pop    %edi
 77d:	5d                   	pop    %ebp
 77e:	c3                   	ret    
 77f:	90                   	nop

00000780 <malloc>:
  return freep;
}

void*
malloc(uint nbytes)
{
 780:	55                   	push   %ebp
 781:	89 e5                	mov    %esp,%ebp
 783:	57                   	push   %edi
 784:	56                   	push   %esi
 785:	53                   	push   %ebx
 786:	83 ec 1c             	sub    $0x1c,%esp
  Header *p, *prevp;
  uint nunits;

  nunits = (nbytes + sizeof(Header) - 1)/sizeof(Header) + 1;
 789:	8b 45 08             	mov    0x8(%ebp),%eax
  if((prevp = freep) == 0){
 78c:	8b 3d b0 0b 00 00    	mov    0xbb0,%edi
  nunits = (nbytes + sizeof(Header) - 1)/sizeof(Header) + 1;
 792:	8d 70 07             	lea    0x7(%eax),%esi
 795:	c1 ee 03             	shr    $0x3,%esi
 798:	83 c6 01             	add    $0x1,%esi
  if((prevp = freep) == 0){
 79b:	85 ff                	test   %edi,%edi
 79d:	0f 84 9d 00 00 00    	je     840 <malloc+0xc0>
    base.s.ptr = freep = prevp = &base;
    base.s.size = 0;
  }
  for(p = prevp->s.ptr; ; prevp = p, p = p->s.ptr){
 7a3:	8b 17                	mov    (%edi),%edx
    if(p->s.size >= nunits){
 7a5:	8b 4a 04             	mov    0x4(%edx),%ecx
 7a8:	39 f1                	cmp    %esi,%ecx
 7aa:	73 6a                	jae    816 <malloc+0x96>
 7ac:	bb 00 10 00 00       	mov    $0x1000,%ebx
 7b1:	39 de                	cmp    %ebx,%esi
 7b3:	0f 43 de             	cmovae %esi,%ebx
  p = sbrk(nu * sizeof(Header));
 7b6:	8d 04 dd 00 00 00 00 	lea    0x0(,%ebx,8),%eax
 7bd:	89 45 e4             	mov    %eax,-0x1c(%ebp)
 7c0:	eb 17                	jmp    7d9 <malloc+0x59>
 7c2:	8d b6 00 00 00 00    	lea    0x0(%esi),%esi
  for(p = prevp->s.ptr; ; prevp = p, p = p->s.ptr){
 7c8:	8b 02                	mov    (%edx),%eax
    if(p->s.size >= nunits){
 7ca:	8b 48 04             	mov    0x4(%eax),%ecx
 7cd:	39 f1                	cmp    %esi,%ecx
 7cf:	73 4f                	jae    820 <malloc+0xa0>
        p->s.size = nunits;
      }
      freep = prevp;
      return (void*)(p + 1);
    }
    if(p == freep)
 7d1:	8b 3d b0 0b 00 00    	mov    0xbb0,%edi
 7d7:	89 c2                	mov    %eax,%edx
 7d9:	39 d7                	cmp    %edx,%edi
 7db:	75 eb                	jne    7c8 <malloc+0x48>
  p = sbrk(nu * sizeof(Header));
 7dd:	83 ec 0c             	sub    $0xc,%esp
 7e0:	ff 75 e4             	push   -0x1c(%ebp)
 7e3:	e8 f3 fb ff ff       	call   3db <sbrk>
  if(p == (char*)-1)
 7e8:	83 c4 10             	add    $0x10,%esp
 7eb:	83 f8 ff             	cmp    $0xffffffff,%eax
 7ee:	74 1c                	je     80c <malloc+0x8c>
  hp->s.size = nu;
 7f0:	89 58 04             	mov    %ebx,0x4(%eax)
  free((void*)(hp + 1));
 7f3:	83 ec 0c             	sub    $0xc,%esp
 7f6:	83 c0 08             	add    $0x8,%eax
 7f9:	50                   	push   %eax
 7fa:	e8 f1 fe ff ff       	call   6f0 <free>
  return freep;
 7ff:	8b 15 b0 0b 00 00    	mov    0xbb0,%edx
      if((p = morecore(nunits)) == 0)
 805:	83 c4 10             	add    $0x10,%esp
 808:	85 d2                	test   %edx,%edx
 80a:	75 bc                	jne    7c8 <malloc+0x48>
        return 0;
  }
}
 80c:	8d 65 f4             	lea    -0xc(%ebp),%esp
        return 0;
 80f:	31 c0                	xor    %eax,%eax
}
 811:	5b                   	pop    %ebx
 812:	5e                   	pop    %esi
 813:	5f                   	pop    %edi
 814:	5d                   	pop    %ebp
 815:	c3                   	ret    
    if(p->s.size >= nunits){
 816:	89 d0                	mov    %edx,%eax
 818:	89 fa                	mov    %edi,%edx
 81a:	8d b6 00 00 00 00    	lea    0x0(%esi),%esi
      if(p->s.size == nunits)
 820:	39 ce                	cmp    %ecx,%esi
 822:	74 4c                	je     870 <malloc+0xf0>
        p->s.size -= nunits;
 824:	29 f1                	sub    %esi,%ecx
 826:	89 48 04             	mov    %ecx,0x4(%eax)
        p += p->s.size;
 829:	8d 04 c8             	lea    (%eax,%ecx,8),%eax
        p->s.size = nunits;
 82c:	89 70 04             	mov    %esi,0x4(%eax)
      freep = prevp;
 82f:	89 15 b0 0b 00 00    	mov    %edx,0xbb0
}
 835:	8d 65 f4             	lea    -0xc(%ebp),%esp
      return (void*)(p + 1);
 838:	83 c0 08             	add    $0x8,%eax
}
 83b:	5b                   	pop    %ebx
 83c:	5e                   	pop    %esi
 83d:	5f                   	pop    %edi
 83e:	5d                   	pop    %ebp
 83f:	c3                   	ret    
    base.s.ptr = freep = prevp = &base;
 840:	c7 05 b0 0b 00 00 b4 	movl   $0xbb4,0xbb0
 847:	0b 00 00 
    base.s.size = 0;
 84a:	bf b4 0b 00 00       	mov    $0xbb4,%edi
    base.s.ptr = freep = prevp = &base;
 84f:	c7 05 b4 0b 00 00 b4 	movl   $0xbb4,0xbb4
 856:	0b 00 00 
  for(p = prevp->s.ptr; ; prevp = p, p = p->s.ptr){
 859:	89 fa                	mov    %edi,%edx
    base.s.size = 0;
 85b:	c7 05 b8 0b 00 00 00 	movl   $0x0,0xbb8
 862:	00 00 00 
    if(p->s.size >= nunits){
 865:	e9 42 ff ff ff       	jmp    7ac <malloc+0x2c>
 86a:	8d b6 00 00 00 00    	lea    0x0(%esi),%esi
        prevp->s.ptr = p->s.ptr;
 870:	8b 08                	mov    (%eax),%ecx
 872:	89 0a                	mov    %ecx,(%edx)
 874:	eb b9                	jmp    82f <malloc+0xaf>
