
_test-mmap:     file format elf32-i386


Disassembly of section .text:

00000000 <main>:
#include "stat.h"
#include "user.h"
#include "fcntl.h"

int main(void)
{
   0:	55                   	push   %ebp
   1:	89 e5                	mov    %esp,%ebp
   3:	83 e4 f0             	and    $0xfffffff0,%esp
  //   addr[8000] = 'a';

  //   printf(1, "After access of second page: memory usage in pages: virtual: %d, physical %d\n", numvp(), numpp());
  // }

  exit();
   6:	e8 58 02 00 00       	call   263 <exit>
   b:	66 90                	xchg   %ax,%ax
   d:	66 90                	xchg   %ax,%ax
   f:	90                   	nop

00000010 <strcpy>:
#include "user.h"
#include "x86.h"

char*
strcpy(char *s, const char *t)
{
  10:	55                   	push   %ebp
  char *os;

  os = s;
  while((*s++ = *t++) != 0)
  11:	31 c0                	xor    %eax,%eax
{
  13:	89 e5                	mov    %esp,%ebp
  15:	53                   	push   %ebx
  16:	8b 4d 08             	mov    0x8(%ebp),%ecx
  19:	8b 5d 0c             	mov    0xc(%ebp),%ebx
  1c:	8d 74 26 00          	lea    0x0(%esi,%eiz,1),%esi
  while((*s++ = *t++) != 0)
  20:	0f b6 14 03          	movzbl (%ebx,%eax,1),%edx
  24:	88 14 01             	mov    %dl,(%ecx,%eax,1)
  27:	83 c0 01             	add    $0x1,%eax
  2a:	84 d2                	test   %dl,%dl
  2c:	75 f2                	jne    20 <strcpy+0x10>
    ;
  return os;
}
  2e:	8b 5d fc             	mov    -0x4(%ebp),%ebx
  31:	89 c8                	mov    %ecx,%eax
  33:	c9                   	leave  
  34:	c3                   	ret    
  35:	8d b4 26 00 00 00 00 	lea    0x0(%esi,%eiz,1),%esi
  3c:	8d 74 26 00          	lea    0x0(%esi,%eiz,1),%esi

00000040 <strcmp>:

int
strcmp(const char *p, const char *q)
{
  40:	55                   	push   %ebp
  41:	89 e5                	mov    %esp,%ebp
  43:	53                   	push   %ebx
  44:	8b 55 08             	mov    0x8(%ebp),%edx
  47:	8b 4d 0c             	mov    0xc(%ebp),%ecx
  while(*p && *p == *q)
  4a:	0f b6 02             	movzbl (%edx),%eax
  4d:	84 c0                	test   %al,%al
  4f:	75 17                	jne    68 <strcmp+0x28>
  51:	eb 3a                	jmp    8d <strcmp+0x4d>
  53:	8d 74 26 00          	lea    0x0(%esi,%eiz,1),%esi
  57:	90                   	nop
  58:	0f b6 42 01          	movzbl 0x1(%edx),%eax
    p++, q++;
  5c:	83 c2 01             	add    $0x1,%edx
  5f:	8d 59 01             	lea    0x1(%ecx),%ebx
  while(*p && *p == *q)
  62:	84 c0                	test   %al,%al
  64:	74 1a                	je     80 <strcmp+0x40>
    p++, q++;
  66:	89 d9                	mov    %ebx,%ecx
  while(*p && *p == *q)
  68:	0f b6 19             	movzbl (%ecx),%ebx
  6b:	38 c3                	cmp    %al,%bl
  6d:	74 e9                	je     58 <strcmp+0x18>
  return (uchar)*p - (uchar)*q;
  6f:	29 d8                	sub    %ebx,%eax
}
  71:	8b 5d fc             	mov    -0x4(%ebp),%ebx
  74:	c9                   	leave  
  75:	c3                   	ret    
  76:	8d b4 26 00 00 00 00 	lea    0x0(%esi,%eiz,1),%esi
  7d:	8d 76 00             	lea    0x0(%esi),%esi
  return (uchar)*p - (uchar)*q;
  80:	0f b6 59 01          	movzbl 0x1(%ecx),%ebx
  84:	31 c0                	xor    %eax,%eax
  86:	29 d8                	sub    %ebx,%eax
}
  88:	8b 5d fc             	mov    -0x4(%ebp),%ebx
  8b:	c9                   	leave  
  8c:	c3                   	ret    
  return (uchar)*p - (uchar)*q;
  8d:	0f b6 19             	movzbl (%ecx),%ebx
  90:	31 c0                	xor    %eax,%eax
  92:	eb db                	jmp    6f <strcmp+0x2f>
  94:	8d b4 26 00 00 00 00 	lea    0x0(%esi,%eiz,1),%esi
  9b:	8d 74 26 00          	lea    0x0(%esi,%eiz,1),%esi
  9f:	90                   	nop

000000a0 <strlen>:

uint
strlen(const char *s)
{
  a0:	55                   	push   %ebp
  a1:	89 e5                	mov    %esp,%ebp
  a3:	8b 55 08             	mov    0x8(%ebp),%edx
  int n;

  for(n = 0; s[n]; n++)
  a6:	80 3a 00             	cmpb   $0x0,(%edx)
  a9:	74 15                	je     c0 <strlen+0x20>
  ab:	31 c0                	xor    %eax,%eax
  ad:	8d 76 00             	lea    0x0(%esi),%esi
  b0:	83 c0 01             	add    $0x1,%eax
  b3:	80 3c 02 00          	cmpb   $0x0,(%edx,%eax,1)
  b7:	89 c1                	mov    %eax,%ecx
  b9:	75 f5                	jne    b0 <strlen+0x10>
    ;
  return n;
}
  bb:	89 c8                	mov    %ecx,%eax
  bd:	5d                   	pop    %ebp
  be:	c3                   	ret    
  bf:	90                   	nop
  for(n = 0; s[n]; n++)
  c0:	31 c9                	xor    %ecx,%ecx
}
  c2:	5d                   	pop    %ebp
  c3:	89 c8                	mov    %ecx,%eax
  c5:	c3                   	ret    
  c6:	8d b4 26 00 00 00 00 	lea    0x0(%esi,%eiz,1),%esi
  cd:	8d 76 00             	lea    0x0(%esi),%esi

000000d0 <memset>:

void*
memset(void *dst, int c, uint n)
{
  d0:	55                   	push   %ebp
  d1:	89 e5                	mov    %esp,%ebp
  d3:	57                   	push   %edi
  d4:	8b 55 08             	mov    0x8(%ebp),%edx
}

static inline void
stosb(void *addr, int data, int cnt)
{
  asm volatile("cld; rep stosb" :
  d7:	8b 4d 10             	mov    0x10(%ebp),%ecx
  da:	8b 45 0c             	mov    0xc(%ebp),%eax
  dd:	89 d7                	mov    %edx,%edi
  df:	fc                   	cld    
  e0:	f3 aa                	rep stos %al,%es:(%edi)
  stosb(dst, c, n);
  return dst;
}
  e2:	8b 7d fc             	mov    -0x4(%ebp),%edi
  e5:	89 d0                	mov    %edx,%eax
  e7:	c9                   	leave  
  e8:	c3                   	ret    
  e9:	8d b4 26 00 00 00 00 	lea    0x0(%esi,%eiz,1),%esi

000000f0 <strchr>:

char*
strchr(const char *s, char c)
{
  f0:	55                   	push   %ebp
  f1:	89 e5                	mov    %esp,%ebp
  f3:	8b 45 08             	mov    0x8(%ebp),%eax
  f6:	0f b6 4d 0c          	movzbl 0xc(%ebp),%ecx
  for(; *s; s++)
  fa:	0f b6 10             	movzbl (%eax),%edx
  fd:	84 d2                	test   %dl,%dl
  ff:	75 12                	jne    113 <strchr+0x23>
 101:	eb 1d                	jmp    120 <strchr+0x30>
 103:	8d 74 26 00          	lea    0x0(%esi,%eiz,1),%esi
 107:	90                   	nop
 108:	0f b6 50 01          	movzbl 0x1(%eax),%edx
 10c:	83 c0 01             	add    $0x1,%eax
 10f:	84 d2                	test   %dl,%dl
 111:	74 0d                	je     120 <strchr+0x30>
    if(*s == c)
 113:	38 d1                	cmp    %dl,%cl
 115:	75 f1                	jne    108 <strchr+0x18>
      return (char*)s;
  return 0;
}
 117:	5d                   	pop    %ebp
 118:	c3                   	ret    
 119:	8d b4 26 00 00 00 00 	lea    0x0(%esi,%eiz,1),%esi
  return 0;
 120:	31 c0                	xor    %eax,%eax
}
 122:	5d                   	pop    %ebp
 123:	c3                   	ret    
 124:	8d b4 26 00 00 00 00 	lea    0x0(%esi,%eiz,1),%esi
 12b:	8d 74 26 00          	lea    0x0(%esi,%eiz,1),%esi
 12f:	90                   	nop

00000130 <gets>:

char*
gets(char *buf, int max)
{
 130:	55                   	push   %ebp
 131:	89 e5                	mov    %esp,%ebp
 133:	57                   	push   %edi
 134:	56                   	push   %esi
  int i, cc;
  char c;

  for(i=0; i+1 < max; ){
    cc = read(0, &c, 1);
 135:	8d 7d e7             	lea    -0x19(%ebp),%edi
{
 138:	53                   	push   %ebx
  for(i=0; i+1 < max; ){
 139:	31 db                	xor    %ebx,%ebx
{
 13b:	83 ec 1c             	sub    $0x1c,%esp
  for(i=0; i+1 < max; ){
 13e:	eb 27                	jmp    167 <gets+0x37>
    cc = read(0, &c, 1);
 140:	83 ec 04             	sub    $0x4,%esp
 143:	6a 01                	push   $0x1
 145:	57                   	push   %edi
 146:	6a 00                	push   $0x0
 148:	e8 2e 01 00 00       	call   27b <read>
    if(cc < 1)
 14d:	83 c4 10             	add    $0x10,%esp
 150:	85 c0                	test   %eax,%eax
 152:	7e 1d                	jle    171 <gets+0x41>
      break;
    buf[i++] = c;
 154:	0f b6 45 e7          	movzbl -0x19(%ebp),%eax
 158:	8b 55 08             	mov    0x8(%ebp),%edx
 15b:	88 44 1a ff          	mov    %al,-0x1(%edx,%ebx,1)
    if(c == '\n' || c == '\r')
 15f:	3c 0a                	cmp    $0xa,%al
 161:	74 1d                	je     180 <gets+0x50>
 163:	3c 0d                	cmp    $0xd,%al
 165:	74 19                	je     180 <gets+0x50>
  for(i=0; i+1 < max; ){
 167:	89 de                	mov    %ebx,%esi
 169:	83 c3 01             	add    $0x1,%ebx
 16c:	3b 5d 0c             	cmp    0xc(%ebp),%ebx
 16f:	7c cf                	jl     140 <gets+0x10>
      break;
  }
  buf[i] = '\0';
 171:	8b 45 08             	mov    0x8(%ebp),%eax
 174:	c6 04 30 00          	movb   $0x0,(%eax,%esi,1)
  return buf;
}
 178:	8d 65 f4             	lea    -0xc(%ebp),%esp
 17b:	5b                   	pop    %ebx
 17c:	5e                   	pop    %esi
 17d:	5f                   	pop    %edi
 17e:	5d                   	pop    %ebp
 17f:	c3                   	ret    
  buf[i] = '\0';
 180:	8b 45 08             	mov    0x8(%ebp),%eax
 183:	89 de                	mov    %ebx,%esi
 185:	c6 04 30 00          	movb   $0x0,(%eax,%esi,1)
}
 189:	8d 65 f4             	lea    -0xc(%ebp),%esp
 18c:	5b                   	pop    %ebx
 18d:	5e                   	pop    %esi
 18e:	5f                   	pop    %edi
 18f:	5d                   	pop    %ebp
 190:	c3                   	ret    
 191:	8d b4 26 00 00 00 00 	lea    0x0(%esi,%eiz,1),%esi
 198:	8d b4 26 00 00 00 00 	lea    0x0(%esi,%eiz,1),%esi
 19f:	90                   	nop

000001a0 <stat>:

int
stat(const char *n, struct stat *st)
{
 1a0:	55                   	push   %ebp
 1a1:	89 e5                	mov    %esp,%ebp
 1a3:	56                   	push   %esi
 1a4:	53                   	push   %ebx
  int fd;
  int r;

  fd = open(n, O_RDONLY);
 1a5:	83 ec 08             	sub    $0x8,%esp
 1a8:	6a 00                	push   $0x0
 1aa:	ff 75 08             	push   0x8(%ebp)
 1ad:	e8 f1 00 00 00       	call   2a3 <open>
  if(fd < 0)
 1b2:	83 c4 10             	add    $0x10,%esp
 1b5:	85 c0                	test   %eax,%eax
 1b7:	78 27                	js     1e0 <stat+0x40>
    return -1;
  r = fstat(fd, st);
 1b9:	83 ec 08             	sub    $0x8,%esp
 1bc:	ff 75 0c             	push   0xc(%ebp)
 1bf:	89 c3                	mov    %eax,%ebx
 1c1:	50                   	push   %eax
 1c2:	e8 f4 00 00 00       	call   2bb <fstat>
  close(fd);
 1c7:	89 1c 24             	mov    %ebx,(%esp)
  r = fstat(fd, st);
 1ca:	89 c6                	mov    %eax,%esi
  close(fd);
 1cc:	e8 ba 00 00 00       	call   28b <close>
  return r;
 1d1:	83 c4 10             	add    $0x10,%esp
}
 1d4:	8d 65 f8             	lea    -0x8(%ebp),%esp
 1d7:	89 f0                	mov    %esi,%eax
 1d9:	5b                   	pop    %ebx
 1da:	5e                   	pop    %esi
 1db:	5d                   	pop    %ebp
 1dc:	c3                   	ret    
 1dd:	8d 76 00             	lea    0x0(%esi),%esi
    return -1;
 1e0:	be ff ff ff ff       	mov    $0xffffffff,%esi
 1e5:	eb ed                	jmp    1d4 <stat+0x34>
 1e7:	8d b4 26 00 00 00 00 	lea    0x0(%esi,%eiz,1),%esi
 1ee:	66 90                	xchg   %ax,%ax

000001f0 <atoi>:

int
atoi(const char *s)
{
 1f0:	55                   	push   %ebp
 1f1:	89 e5                	mov    %esp,%ebp
 1f3:	53                   	push   %ebx
 1f4:	8b 55 08             	mov    0x8(%ebp),%edx
  int n;

  n = 0;
  while('0' <= *s && *s <= '9')
 1f7:	0f be 02             	movsbl (%edx),%eax
 1fa:	8d 48 d0             	lea    -0x30(%eax),%ecx
 1fd:	80 f9 09             	cmp    $0x9,%cl
  n = 0;
 200:	b9 00 00 00 00       	mov    $0x0,%ecx
  while('0' <= *s && *s <= '9')
 205:	77 1e                	ja     225 <atoi+0x35>
 207:	8d b4 26 00 00 00 00 	lea    0x0(%esi,%eiz,1),%esi
 20e:	66 90                	xchg   %ax,%ax
    n = n*10 + *s++ - '0';
 210:	83 c2 01             	add    $0x1,%edx
 213:	8d 0c 89             	lea    (%ecx,%ecx,4),%ecx
 216:	8d 4c 48 d0          	lea    -0x30(%eax,%ecx,2),%ecx
  while('0' <= *s && *s <= '9')
 21a:	0f be 02             	movsbl (%edx),%eax
 21d:	8d 58 d0             	lea    -0x30(%eax),%ebx
 220:	80 fb 09             	cmp    $0x9,%bl
 223:	76 eb                	jbe    210 <atoi+0x20>
  return n;
}
 225:	8b 5d fc             	mov    -0x4(%ebp),%ebx
 228:	89 c8                	mov    %ecx,%eax
 22a:	c9                   	leave  
 22b:	c3                   	ret    
 22c:	8d 74 26 00          	lea    0x0(%esi,%eiz,1),%esi

00000230 <memmove>:

void*
memmove(void *vdst, const void *vsrc, int n)
{
 230:	55                   	push   %ebp
 231:	89 e5                	mov    %esp,%ebp
 233:	57                   	push   %edi
 234:	8b 45 10             	mov    0x10(%ebp),%eax
 237:	8b 55 08             	mov    0x8(%ebp),%edx
 23a:	56                   	push   %esi
 23b:	8b 75 0c             	mov    0xc(%ebp),%esi
  char *dst;
  const char *src;

  dst = vdst;
  src = vsrc;
  while(n-- > 0)
 23e:	85 c0                	test   %eax,%eax
 240:	7e 13                	jle    255 <memmove+0x25>
 242:	01 d0                	add    %edx,%eax
  dst = vdst;
 244:	89 d7                	mov    %edx,%edi
 246:	8d b4 26 00 00 00 00 	lea    0x0(%esi,%eiz,1),%esi
 24d:	8d 76 00             	lea    0x0(%esi),%esi
    *dst++ = *src++;
 250:	a4                   	movsb  %ds:(%esi),%es:(%edi)
  while(n-- > 0)
 251:	39 f8                	cmp    %edi,%eax
 253:	75 fb                	jne    250 <memmove+0x20>
  return vdst;
}
 255:	5e                   	pop    %esi
 256:	89 d0                	mov    %edx,%eax
 258:	5f                   	pop    %edi
 259:	5d                   	pop    %ebp
 25a:	c3                   	ret    

0000025b <fork>:
  name: \
    movl $SYS_ ## name, %eax; \
    int $T_SYSCALL; \
    ret

SYSCALL(fork)
 25b:	b8 01 00 00 00       	mov    $0x1,%eax
 260:	cd 40                	int    $0x40
 262:	c3                   	ret    

00000263 <exit>:
SYSCALL(exit)
 263:	b8 02 00 00 00       	mov    $0x2,%eax
 268:	cd 40                	int    $0x40
 26a:	c3                   	ret    

0000026b <wait>:
SYSCALL(wait)
 26b:	b8 03 00 00 00       	mov    $0x3,%eax
 270:	cd 40                	int    $0x40
 272:	c3                   	ret    

00000273 <pipe>:
SYSCALL(pipe)
 273:	b8 04 00 00 00       	mov    $0x4,%eax
 278:	cd 40                	int    $0x40
 27a:	c3                   	ret    

0000027b <read>:
SYSCALL(read)
 27b:	b8 05 00 00 00       	mov    $0x5,%eax
 280:	cd 40                	int    $0x40
 282:	c3                   	ret    

00000283 <write>:
SYSCALL(write)
 283:	b8 10 00 00 00       	mov    $0x10,%eax
 288:	cd 40                	int    $0x40
 28a:	c3                   	ret    

0000028b <close>:
SYSCALL(close)
 28b:	b8 15 00 00 00       	mov    $0x15,%eax
 290:	cd 40                	int    $0x40
 292:	c3                   	ret    

00000293 <kill>:
SYSCALL(kill)
 293:	b8 06 00 00 00       	mov    $0x6,%eax
 298:	cd 40                	int    $0x40
 29a:	c3                   	ret    

0000029b <exec>:
SYSCALL(exec)
 29b:	b8 07 00 00 00       	mov    $0x7,%eax
 2a0:	cd 40                	int    $0x40
 2a2:	c3                   	ret    

000002a3 <open>:
SYSCALL(open)
 2a3:	b8 0f 00 00 00       	mov    $0xf,%eax
 2a8:	cd 40                	int    $0x40
 2aa:	c3                   	ret    

000002ab <mknod>:
SYSCALL(mknod)
 2ab:	b8 11 00 00 00       	mov    $0x11,%eax
 2b0:	cd 40                	int    $0x40
 2b2:	c3                   	ret    

000002b3 <unlink>:
SYSCALL(unlink)
 2b3:	b8 12 00 00 00       	mov    $0x12,%eax
 2b8:	cd 40                	int    $0x40
 2ba:	c3                   	ret    

000002bb <fstat>:
SYSCALL(fstat)
 2bb:	b8 08 00 00 00       	mov    $0x8,%eax
 2c0:	cd 40                	int    $0x40
 2c2:	c3                   	ret    

000002c3 <link>:
SYSCALL(link)
 2c3:	b8 13 00 00 00       	mov    $0x13,%eax
 2c8:	cd 40                	int    $0x40
 2ca:	c3                   	ret    

000002cb <mkdir>:
SYSCALL(mkdir)
 2cb:	b8 14 00 00 00       	mov    $0x14,%eax
 2d0:	cd 40                	int    $0x40
 2d2:	c3                   	ret    

000002d3 <chdir>:
SYSCALL(chdir)
 2d3:	b8 09 00 00 00       	mov    $0x9,%eax
 2d8:	cd 40                	int    $0x40
 2da:	c3                   	ret    

000002db <dup>:
SYSCALL(dup)
 2db:	b8 0a 00 00 00       	mov    $0xa,%eax
 2e0:	cd 40                	int    $0x40
 2e2:	c3                   	ret    

000002e3 <getpid>:
SYSCALL(getpid)
 2e3:	b8 0b 00 00 00       	mov    $0xb,%eax
 2e8:	cd 40                	int    $0x40
 2ea:	c3                   	ret    

000002eb <sbrk>:
SYSCALL(sbrk)
 2eb:	b8 0c 00 00 00       	mov    $0xc,%eax
 2f0:	cd 40                	int    $0x40
 2f2:	c3                   	ret    

000002f3 <sleep>:
SYSCALL(sleep)
 2f3:	b8 0d 00 00 00       	mov    $0xd,%eax
 2f8:	cd 40                	int    $0x40
 2fa:	c3                   	ret    

000002fb <uptime>:
SYSCALL(uptime)
 2fb:	b8 0e 00 00 00       	mov    $0xe,%eax
 300:	cd 40                	int    $0x40
 302:	c3                   	ret    

00000303 <hello>:
SYSCALL(hello)
 303:	b8 16 00 00 00       	mov    $0x16,%eax
 308:	cd 40                	int    $0x40
 30a:	c3                   	ret    

0000030b <helloYou>:
SYSCALL(helloYou)
 30b:	b8 17 00 00 00       	mov    $0x17,%eax
 310:	cd 40                	int    $0x40
 312:	c3                   	ret    

00000313 <getppid>:
SYSCALL(getppid)
 313:	b8 18 00 00 00       	mov    $0x18,%eax
 318:	cd 40                	int    $0x40
 31a:	c3                   	ret    

0000031b <get_siblings_info>:
SYSCALL(get_siblings_info)
 31b:	b8 19 00 00 00       	mov    $0x19,%eax
 320:	cd 40                	int    $0x40
 322:	c3                   	ret    

00000323 <signalProcess>:
SYSCALL(signalProcess)
 323:	b8 1a 00 00 00       	mov    $0x1a,%eax
 328:	cd 40                	int    $0x40
 32a:	c3                   	ret    

0000032b <numvp>:
SYSCALL(numvp)
 32b:	b8 1b 00 00 00       	mov    $0x1b,%eax
 330:	cd 40                	int    $0x40
 332:	c3                   	ret    

00000333 <numpp>:
SYSCALL(numpp)
 333:	b8 1c 00 00 00       	mov    $0x1c,%eax
 338:	cd 40                	int    $0x40
 33a:	c3                   	ret    

0000033b <init_counter>:

SYSCALL(init_counter)
 33b:	b8 1d 00 00 00       	mov    $0x1d,%eax
 340:	cd 40                	int    $0x40
 342:	c3                   	ret    

00000343 <update_cnt>:
SYSCALL(update_cnt)
 343:	b8 1e 00 00 00       	mov    $0x1e,%eax
 348:	cd 40                	int    $0x40
 34a:	c3                   	ret    

0000034b <display_count>:
SYSCALL(display_count)
 34b:	b8 1f 00 00 00       	mov    $0x1f,%eax
 350:	cd 40                	int    $0x40
 352:	c3                   	ret    

00000353 <init_counter_1>:
SYSCALL(init_counter_1)
 353:	b8 20 00 00 00       	mov    $0x20,%eax
 358:	cd 40                	int    $0x40
 35a:	c3                   	ret    

0000035b <update_cnt_1>:
SYSCALL(update_cnt_1)
 35b:	b8 21 00 00 00       	mov    $0x21,%eax
 360:	cd 40                	int    $0x40
 362:	c3                   	ret    

00000363 <display_count_1>:
SYSCALL(display_count_1)
 363:	b8 22 00 00 00       	mov    $0x22,%eax
 368:	cd 40                	int    $0x40
 36a:	c3                   	ret    

0000036b <init_counter_2>:
SYSCALL(init_counter_2)
 36b:	b8 23 00 00 00       	mov    $0x23,%eax
 370:	cd 40                	int    $0x40
 372:	c3                   	ret    

00000373 <update_cnt_2>:
SYSCALL(update_cnt_2)
 373:	b8 24 00 00 00       	mov    $0x24,%eax
 378:	cd 40                	int    $0x40
 37a:	c3                   	ret    

0000037b <display_count_2>:
SYSCALL(display_count_2)
 37b:	b8 25 00 00 00       	mov    $0x25,%eax
 380:	cd 40                	int    $0x40
 382:	c3                   	ret    

00000383 <init_mylock>:
SYSCALL(init_mylock)
 383:	b8 26 00 00 00       	mov    $0x26,%eax
 388:	cd 40                	int    $0x40
 38a:	c3                   	ret    

0000038b <acquire_mylock>:
SYSCALL(acquire_mylock)
 38b:	b8 27 00 00 00       	mov    $0x27,%eax
 390:	cd 40                	int    $0x40
 392:	c3                   	ret    

00000393 <release_mylock>:
SYSCALL(release_mylock)
 393:	b8 28 00 00 00       	mov    $0x28,%eax
 398:	cd 40                	int    $0x40
 39a:	c3                   	ret    

0000039b <holding_mylock>:
 39b:	b8 29 00 00 00       	mov    $0x29,%eax
 3a0:	cd 40                	int    $0x40
 3a2:	c3                   	ret    
 3a3:	66 90                	xchg   %ax,%ax
 3a5:	66 90                	xchg   %ax,%ax
 3a7:	66 90                	xchg   %ax,%ax
 3a9:	66 90                	xchg   %ax,%ax
 3ab:	66 90                	xchg   %ax,%ax
 3ad:	66 90                	xchg   %ax,%ax
 3af:	90                   	nop

000003b0 <printint>:
  write(fd, &c, 1);
}

static void
printint(int fd, int xx, int base, int sgn)
{
 3b0:	55                   	push   %ebp
 3b1:	89 e5                	mov    %esp,%ebp
 3b3:	57                   	push   %edi
 3b4:	56                   	push   %esi
 3b5:	53                   	push   %ebx
 3b6:	83 ec 3c             	sub    $0x3c,%esp
 3b9:	89 4d c4             	mov    %ecx,-0x3c(%ebp)
  uint x;

  neg = 0;
  if(sgn && xx < 0){
    neg = 1;
    x = -xx;
 3bc:	89 d1                	mov    %edx,%ecx
{
 3be:	89 45 b8             	mov    %eax,-0x48(%ebp)
  if(sgn && xx < 0){
 3c1:	85 d2                	test   %edx,%edx
 3c3:	0f 89 7f 00 00 00    	jns    448 <printint+0x98>
 3c9:	f6 45 08 01          	testb  $0x1,0x8(%ebp)
 3cd:	74 79                	je     448 <printint+0x98>
    neg = 1;
 3cf:	c7 45 bc 01 00 00 00 	movl   $0x1,-0x44(%ebp)
    x = -xx;
 3d6:	f7 d9                	neg    %ecx
  } else {
    x = xx;
  }

  i = 0;
 3d8:	31 db                	xor    %ebx,%ebx
 3da:	8d 75 d7             	lea    -0x29(%ebp),%esi
 3dd:	8d 76 00             	lea    0x0(%esi),%esi
  do{
    buf[i++] = digits[x % base];
 3e0:	89 c8                	mov    %ecx,%eax
 3e2:	31 d2                	xor    %edx,%edx
 3e4:	89 cf                	mov    %ecx,%edi
 3e6:	f7 75 c4             	divl   -0x3c(%ebp)
 3e9:	0f b6 92 e8 07 00 00 	movzbl 0x7e8(%edx),%edx
 3f0:	89 45 c0             	mov    %eax,-0x40(%ebp)
 3f3:	89 d8                	mov    %ebx,%eax
 3f5:	8d 5b 01             	lea    0x1(%ebx),%ebx
  }while((x /= base) != 0);
 3f8:	8b 4d c0             	mov    -0x40(%ebp),%ecx
    buf[i++] = digits[x % base];
 3fb:	88 14 1e             	mov    %dl,(%esi,%ebx,1)
  }while((x /= base) != 0);
 3fe:	39 7d c4             	cmp    %edi,-0x3c(%ebp)
 401:	76 dd                	jbe    3e0 <printint+0x30>
  if(neg)
 403:	8b 4d bc             	mov    -0x44(%ebp),%ecx
 406:	85 c9                	test   %ecx,%ecx
 408:	74 0c                	je     416 <printint+0x66>
    buf[i++] = '-';
 40a:	c6 44 1d d8 2d       	movb   $0x2d,-0x28(%ebp,%ebx,1)
    buf[i++] = digits[x % base];
 40f:	89 d8                	mov    %ebx,%eax
    buf[i++] = '-';
 411:	ba 2d 00 00 00       	mov    $0x2d,%edx

  while(--i >= 0)
 416:	8b 7d b8             	mov    -0x48(%ebp),%edi
 419:	8d 5c 05 d7          	lea    -0x29(%ebp,%eax,1),%ebx
 41d:	eb 07                	jmp    426 <printint+0x76>
 41f:	90                   	nop
    putc(fd, buf[i]);
 420:	0f b6 13             	movzbl (%ebx),%edx
 423:	83 eb 01             	sub    $0x1,%ebx
  write(fd, &c, 1);
 426:	83 ec 04             	sub    $0x4,%esp
 429:	88 55 d7             	mov    %dl,-0x29(%ebp)
 42c:	6a 01                	push   $0x1
 42e:	56                   	push   %esi
 42f:	57                   	push   %edi
 430:	e8 4e fe ff ff       	call   283 <write>
  while(--i >= 0)
 435:	83 c4 10             	add    $0x10,%esp
 438:	39 de                	cmp    %ebx,%esi
 43a:	75 e4                	jne    420 <printint+0x70>
}
 43c:	8d 65 f4             	lea    -0xc(%ebp),%esp
 43f:	5b                   	pop    %ebx
 440:	5e                   	pop    %esi
 441:	5f                   	pop    %edi
 442:	5d                   	pop    %ebp
 443:	c3                   	ret    
 444:	8d 74 26 00          	lea    0x0(%esi,%eiz,1),%esi
  neg = 0;
 448:	c7 45 bc 00 00 00 00 	movl   $0x0,-0x44(%ebp)
 44f:	eb 87                	jmp    3d8 <printint+0x28>
 451:	8d b4 26 00 00 00 00 	lea    0x0(%esi,%eiz,1),%esi
 458:	8d b4 26 00 00 00 00 	lea    0x0(%esi,%eiz,1),%esi
 45f:	90                   	nop

00000460 <printf>:

// Print to the given fd. Only understands %d, %x, %p, %s.
void
printf(int fd, const char *fmt, ...)
{
 460:	55                   	push   %ebp
 461:	89 e5                	mov    %esp,%ebp
 463:	57                   	push   %edi
 464:	56                   	push   %esi
 465:	53                   	push   %ebx
 466:	83 ec 2c             	sub    $0x2c,%esp
  int c, i, state;
  uint *ap;

  state = 0;
  ap = (uint*)(void*)&fmt + 1;
  for(i = 0; fmt[i]; i++){
 469:	8b 5d 0c             	mov    0xc(%ebp),%ebx
{
 46c:	8b 75 08             	mov    0x8(%ebp),%esi
  for(i = 0; fmt[i]; i++){
 46f:	0f b6 13             	movzbl (%ebx),%edx
 472:	84 d2                	test   %dl,%dl
 474:	74 6a                	je     4e0 <printf+0x80>
  ap = (uint*)(void*)&fmt + 1;
 476:	8d 45 10             	lea    0x10(%ebp),%eax
 479:	83 c3 01             	add    $0x1,%ebx
  write(fd, &c, 1);
 47c:	8d 7d e7             	lea    -0x19(%ebp),%edi
  state = 0;
 47f:	31 c9                	xor    %ecx,%ecx
  ap = (uint*)(void*)&fmt + 1;
 481:	89 45 d0             	mov    %eax,-0x30(%ebp)
 484:	eb 36                	jmp    4bc <printf+0x5c>
 486:	8d b4 26 00 00 00 00 	lea    0x0(%esi,%eiz,1),%esi
 48d:	8d 76 00             	lea    0x0(%esi),%esi
 490:	89 4d d4             	mov    %ecx,-0x2c(%ebp)
    c = fmt[i] & 0xff;
    if(state == 0){
      if(c == '%'){
        state = '%';
 493:	b9 25 00 00 00       	mov    $0x25,%ecx
      if(c == '%'){
 498:	83 f8 25             	cmp    $0x25,%eax
 49b:	74 15                	je     4b2 <printf+0x52>
  write(fd, &c, 1);
 49d:	83 ec 04             	sub    $0x4,%esp
 4a0:	88 55 e7             	mov    %dl,-0x19(%ebp)
 4a3:	6a 01                	push   $0x1
 4a5:	57                   	push   %edi
 4a6:	56                   	push   %esi
 4a7:	e8 d7 fd ff ff       	call   283 <write>
 4ac:	8b 4d d4             	mov    -0x2c(%ebp),%ecx
      } else {
        putc(fd, c);
 4af:	83 c4 10             	add    $0x10,%esp
  for(i = 0; fmt[i]; i++){
 4b2:	0f b6 13             	movzbl (%ebx),%edx
 4b5:	83 c3 01             	add    $0x1,%ebx
 4b8:	84 d2                	test   %dl,%dl
 4ba:	74 24                	je     4e0 <printf+0x80>
    c = fmt[i] & 0xff;
 4bc:	0f b6 c2             	movzbl %dl,%eax
    if(state == 0){
 4bf:	85 c9                	test   %ecx,%ecx
 4c1:	74 cd                	je     490 <printf+0x30>
      }
    } else if(state == '%'){
 4c3:	83 f9 25             	cmp    $0x25,%ecx
 4c6:	75 ea                	jne    4b2 <printf+0x52>
      if(c == 'd'){
 4c8:	83 f8 25             	cmp    $0x25,%eax
 4cb:	0f 84 07 01 00 00    	je     5d8 <printf+0x178>
 4d1:	83 e8 63             	sub    $0x63,%eax
 4d4:	83 f8 15             	cmp    $0x15,%eax
 4d7:	77 17                	ja     4f0 <printf+0x90>
 4d9:	ff 24 85 90 07 00 00 	jmp    *0x790(,%eax,4)
        putc(fd, c);
      }
      state = 0;
    }
  }
}
 4e0:	8d 65 f4             	lea    -0xc(%ebp),%esp
 4e3:	5b                   	pop    %ebx
 4e4:	5e                   	pop    %esi
 4e5:	5f                   	pop    %edi
 4e6:	5d                   	pop    %ebp
 4e7:	c3                   	ret    
 4e8:	8d b4 26 00 00 00 00 	lea    0x0(%esi,%eiz,1),%esi
 4ef:	90                   	nop
  write(fd, &c, 1);
 4f0:	83 ec 04             	sub    $0x4,%esp
 4f3:	88 55 d4             	mov    %dl,-0x2c(%ebp)
 4f6:	6a 01                	push   $0x1
 4f8:	57                   	push   %edi
 4f9:	56                   	push   %esi
 4fa:	c6 45 e7 25          	movb   $0x25,-0x19(%ebp)
 4fe:	e8 80 fd ff ff       	call   283 <write>
        putc(fd, c);
 503:	0f b6 55 d4          	movzbl -0x2c(%ebp),%edx
  write(fd, &c, 1);
 507:	83 c4 0c             	add    $0xc,%esp
 50a:	88 55 e7             	mov    %dl,-0x19(%ebp)
 50d:	6a 01                	push   $0x1
 50f:	57                   	push   %edi
 510:	56                   	push   %esi
 511:	e8 6d fd ff ff       	call   283 <write>
        putc(fd, c);
 516:	83 c4 10             	add    $0x10,%esp
      state = 0;
 519:	31 c9                	xor    %ecx,%ecx
 51b:	eb 95                	jmp    4b2 <printf+0x52>
 51d:	8d 76 00             	lea    0x0(%esi),%esi
        printint(fd, *ap, 16, 0);
 520:	83 ec 0c             	sub    $0xc,%esp
 523:	b9 10 00 00 00       	mov    $0x10,%ecx
 528:	6a 00                	push   $0x0
 52a:	8b 45 d0             	mov    -0x30(%ebp),%eax
 52d:	8b 10                	mov    (%eax),%edx
 52f:	89 f0                	mov    %esi,%eax
 531:	e8 7a fe ff ff       	call   3b0 <printint>
        ap++;
 536:	83 45 d0 04          	addl   $0x4,-0x30(%ebp)
 53a:	83 c4 10             	add    $0x10,%esp
      state = 0;
 53d:	31 c9                	xor    %ecx,%ecx
 53f:	e9 6e ff ff ff       	jmp    4b2 <printf+0x52>
 544:	8d 74 26 00          	lea    0x0(%esi,%eiz,1),%esi
        s = (char*)*ap;
 548:	8b 45 d0             	mov    -0x30(%ebp),%eax
 54b:	8b 10                	mov    (%eax),%edx
        ap++;
 54d:	83 c0 04             	add    $0x4,%eax
 550:	89 45 d0             	mov    %eax,-0x30(%ebp)
        if(s == 0)
 553:	85 d2                	test   %edx,%edx
 555:	0f 84 8d 00 00 00    	je     5e8 <printf+0x188>
        while(*s != 0){
 55b:	0f b6 02             	movzbl (%edx),%eax
      state = 0;
 55e:	31 c9                	xor    %ecx,%ecx
        while(*s != 0){
 560:	84 c0                	test   %al,%al
 562:	0f 84 4a ff ff ff    	je     4b2 <printf+0x52>
 568:	89 5d d4             	mov    %ebx,-0x2c(%ebp)
 56b:	89 d3                	mov    %edx,%ebx
 56d:	8d 76 00             	lea    0x0(%esi),%esi
  write(fd, &c, 1);
 570:	83 ec 04             	sub    $0x4,%esp
          s++;
 573:	83 c3 01             	add    $0x1,%ebx
 576:	88 45 e7             	mov    %al,-0x19(%ebp)
  write(fd, &c, 1);
 579:	6a 01                	push   $0x1
 57b:	57                   	push   %edi
 57c:	56                   	push   %esi
 57d:	e8 01 fd ff ff       	call   283 <write>
        while(*s != 0){
 582:	0f b6 03             	movzbl (%ebx),%eax
 585:	83 c4 10             	add    $0x10,%esp
 588:	84 c0                	test   %al,%al
 58a:	75 e4                	jne    570 <printf+0x110>
      state = 0;
 58c:	8b 5d d4             	mov    -0x2c(%ebp),%ebx
 58f:	31 c9                	xor    %ecx,%ecx
 591:	e9 1c ff ff ff       	jmp    4b2 <printf+0x52>
 596:	8d b4 26 00 00 00 00 	lea    0x0(%esi,%eiz,1),%esi
 59d:	8d 76 00             	lea    0x0(%esi),%esi
        printint(fd, *ap, 10, 1);
 5a0:	83 ec 0c             	sub    $0xc,%esp
 5a3:	b9 0a 00 00 00       	mov    $0xa,%ecx
 5a8:	6a 01                	push   $0x1
 5aa:	e9 7b ff ff ff       	jmp    52a <printf+0xca>
 5af:	90                   	nop
        putc(fd, *ap);
 5b0:	8b 45 d0             	mov    -0x30(%ebp),%eax
  write(fd, &c, 1);
 5b3:	83 ec 04             	sub    $0x4,%esp
        putc(fd, *ap);
 5b6:	8b 00                	mov    (%eax),%eax
  write(fd, &c, 1);
 5b8:	6a 01                	push   $0x1
 5ba:	57                   	push   %edi
 5bb:	56                   	push   %esi
        putc(fd, *ap);
 5bc:	88 45 e7             	mov    %al,-0x19(%ebp)
  write(fd, &c, 1);
 5bf:	e8 bf fc ff ff       	call   283 <write>
        ap++;
 5c4:	83 45 d0 04          	addl   $0x4,-0x30(%ebp)
 5c8:	83 c4 10             	add    $0x10,%esp
      state = 0;
 5cb:	31 c9                	xor    %ecx,%ecx
 5cd:	e9 e0 fe ff ff       	jmp    4b2 <printf+0x52>
 5d2:	8d b6 00 00 00 00    	lea    0x0(%esi),%esi
        putc(fd, c);
 5d8:	88 55 e7             	mov    %dl,-0x19(%ebp)
  write(fd, &c, 1);
 5db:	83 ec 04             	sub    $0x4,%esp
 5de:	e9 2a ff ff ff       	jmp    50d <printf+0xad>
 5e3:	8d 74 26 00          	lea    0x0(%esi,%eiz,1),%esi
 5e7:	90                   	nop
          s = "(null)";
 5e8:	ba 88 07 00 00       	mov    $0x788,%edx
        while(*s != 0){
 5ed:	89 5d d4             	mov    %ebx,-0x2c(%ebp)
 5f0:	b8 28 00 00 00       	mov    $0x28,%eax
 5f5:	89 d3                	mov    %edx,%ebx
 5f7:	e9 74 ff ff ff       	jmp    570 <printf+0x110>
 5fc:	66 90                	xchg   %ax,%ax
 5fe:	66 90                	xchg   %ax,%ax

00000600 <free>:
static Header base;
static Header *freep;

void
free(void *ap)
{
 600:	55                   	push   %ebp
  Header *bp, *p;

  bp = (Header*)ap - 1;
  for(p = freep; !(bp > p && bp < p->s.ptr); p = p->s.ptr)
 601:	a1 88 0a 00 00       	mov    0xa88,%eax
{
 606:	89 e5                	mov    %esp,%ebp
 608:	57                   	push   %edi
 609:	56                   	push   %esi
 60a:	53                   	push   %ebx
 60b:	8b 5d 08             	mov    0x8(%ebp),%ebx
  bp = (Header*)ap - 1;
 60e:	8d 4b f8             	lea    -0x8(%ebx),%ecx
  for(p = freep; !(bp > p && bp < p->s.ptr); p = p->s.ptr)
 611:	8d b4 26 00 00 00 00 	lea    0x0(%esi,%eiz,1),%esi
 618:	89 c2                	mov    %eax,%edx
 61a:	8b 00                	mov    (%eax),%eax
 61c:	39 ca                	cmp    %ecx,%edx
 61e:	73 30                	jae    650 <free+0x50>
 620:	39 c1                	cmp    %eax,%ecx
 622:	72 04                	jb     628 <free+0x28>
    if(p >= p->s.ptr && (bp > p || bp < p->s.ptr))
 624:	39 c2                	cmp    %eax,%edx
 626:	72 f0                	jb     618 <free+0x18>
      break;
  if(bp + bp->s.size == p->s.ptr){
 628:	8b 73 fc             	mov    -0x4(%ebx),%esi
 62b:	8d 3c f1             	lea    (%ecx,%esi,8),%edi
 62e:	39 f8                	cmp    %edi,%eax
 630:	74 30                	je     662 <free+0x62>
    bp->s.size += p->s.ptr->s.size;
    bp->s.ptr = p->s.ptr->s.ptr;
 632:	89 43 f8             	mov    %eax,-0x8(%ebx)
  } else
    bp->s.ptr = p->s.ptr;
  if(p + p->s.size == bp){
 635:	8b 42 04             	mov    0x4(%edx),%eax
 638:	8d 34 c2             	lea    (%edx,%eax,8),%esi
 63b:	39 f1                	cmp    %esi,%ecx
 63d:	74 3a                	je     679 <free+0x79>
    p->s.size += bp->s.size;
    p->s.ptr = bp->s.ptr;
 63f:	89 0a                	mov    %ecx,(%edx)
  } else
    p->s.ptr = bp;
  freep = p;
}
 641:	5b                   	pop    %ebx
  freep = p;
 642:	89 15 88 0a 00 00    	mov    %edx,0xa88
}
 648:	5e                   	pop    %esi
 649:	5f                   	pop    %edi
 64a:	5d                   	pop    %ebp
 64b:	c3                   	ret    
 64c:	8d 74 26 00          	lea    0x0(%esi,%eiz,1),%esi
    if(p >= p->s.ptr && (bp > p || bp < p->s.ptr))
 650:	39 c2                	cmp    %eax,%edx
 652:	72 c4                	jb     618 <free+0x18>
 654:	39 c1                	cmp    %eax,%ecx
 656:	73 c0                	jae    618 <free+0x18>
  if(bp + bp->s.size == p->s.ptr){
 658:	8b 73 fc             	mov    -0x4(%ebx),%esi
 65b:	8d 3c f1             	lea    (%ecx,%esi,8),%edi
 65e:	39 f8                	cmp    %edi,%eax
 660:	75 d0                	jne    632 <free+0x32>
    bp->s.size += p->s.ptr->s.size;
 662:	03 70 04             	add    0x4(%eax),%esi
 665:	89 73 fc             	mov    %esi,-0x4(%ebx)
    bp->s.ptr = p->s.ptr->s.ptr;
 668:	8b 02                	mov    (%edx),%eax
 66a:	8b 00                	mov    (%eax),%eax
 66c:	89 43 f8             	mov    %eax,-0x8(%ebx)
  if(p + p->s.size == bp){
 66f:	8b 42 04             	mov    0x4(%edx),%eax
 672:	8d 34 c2             	lea    (%edx,%eax,8),%esi
 675:	39 f1                	cmp    %esi,%ecx
 677:	75 c6                	jne    63f <free+0x3f>
    p->s.size += bp->s.size;
 679:	03 43 fc             	add    -0x4(%ebx),%eax
  freep = p;
 67c:	89 15 88 0a 00 00    	mov    %edx,0xa88
    p->s.size += bp->s.size;
 682:	89 42 04             	mov    %eax,0x4(%edx)
    p->s.ptr = bp->s.ptr;
 685:	8b 4b f8             	mov    -0x8(%ebx),%ecx
 688:	89 0a                	mov    %ecx,(%edx)
}
 68a:	5b                   	pop    %ebx
 68b:	5e                   	pop    %esi
 68c:	5f                   	pop    %edi
 68d:	5d                   	pop    %ebp
 68e:	c3                   	ret    
 68f:	90                   	nop

00000690 <malloc>:
  return freep;
}

void*
malloc(uint nbytes)
{
 690:	55                   	push   %ebp
 691:	89 e5                	mov    %esp,%ebp
 693:	57                   	push   %edi
 694:	56                   	push   %esi
 695:	53                   	push   %ebx
 696:	83 ec 1c             	sub    $0x1c,%esp
  Header *p, *prevp;
  uint nunits;

  nunits = (nbytes + sizeof(Header) - 1)/sizeof(Header) + 1;
 699:	8b 45 08             	mov    0x8(%ebp),%eax
  if((prevp = freep) == 0){
 69c:	8b 3d 88 0a 00 00    	mov    0xa88,%edi
  nunits = (nbytes + sizeof(Header) - 1)/sizeof(Header) + 1;
 6a2:	8d 70 07             	lea    0x7(%eax),%esi
 6a5:	c1 ee 03             	shr    $0x3,%esi
 6a8:	83 c6 01             	add    $0x1,%esi
  if((prevp = freep) == 0){
 6ab:	85 ff                	test   %edi,%edi
 6ad:	0f 84 9d 00 00 00    	je     750 <malloc+0xc0>
    base.s.ptr = freep = prevp = &base;
    base.s.size = 0;
  }
  for(p = prevp->s.ptr; ; prevp = p, p = p->s.ptr){
 6b3:	8b 17                	mov    (%edi),%edx
    if(p->s.size >= nunits){
 6b5:	8b 4a 04             	mov    0x4(%edx),%ecx
 6b8:	39 f1                	cmp    %esi,%ecx
 6ba:	73 6a                	jae    726 <malloc+0x96>
 6bc:	bb 00 10 00 00       	mov    $0x1000,%ebx
 6c1:	39 de                	cmp    %ebx,%esi
 6c3:	0f 43 de             	cmovae %esi,%ebx
  p = sbrk(nu * sizeof(Header));
 6c6:	8d 04 dd 00 00 00 00 	lea    0x0(,%ebx,8),%eax
 6cd:	89 45 e4             	mov    %eax,-0x1c(%ebp)
 6d0:	eb 17                	jmp    6e9 <malloc+0x59>
 6d2:	8d b6 00 00 00 00    	lea    0x0(%esi),%esi
  for(p = prevp->s.ptr; ; prevp = p, p = p->s.ptr){
 6d8:	8b 02                	mov    (%edx),%eax
    if(p->s.size >= nunits){
 6da:	8b 48 04             	mov    0x4(%eax),%ecx
 6dd:	39 f1                	cmp    %esi,%ecx
 6df:	73 4f                	jae    730 <malloc+0xa0>
        p->s.size = nunits;
      }
      freep = prevp;
      return (void*)(p + 1);
    }
    if(p == freep)
 6e1:	8b 3d 88 0a 00 00    	mov    0xa88,%edi
 6e7:	89 c2                	mov    %eax,%edx
 6e9:	39 d7                	cmp    %edx,%edi
 6eb:	75 eb                	jne    6d8 <malloc+0x48>
  p = sbrk(nu * sizeof(Header));
 6ed:	83 ec 0c             	sub    $0xc,%esp
 6f0:	ff 75 e4             	push   -0x1c(%ebp)
 6f3:	e8 f3 fb ff ff       	call   2eb <sbrk>
  if(p == (char*)-1)
 6f8:	83 c4 10             	add    $0x10,%esp
 6fb:	83 f8 ff             	cmp    $0xffffffff,%eax
 6fe:	74 1c                	je     71c <malloc+0x8c>
  hp->s.size = nu;
 700:	89 58 04             	mov    %ebx,0x4(%eax)
  free((void*)(hp + 1));
 703:	83 ec 0c             	sub    $0xc,%esp
 706:	83 c0 08             	add    $0x8,%eax
 709:	50                   	push   %eax
 70a:	e8 f1 fe ff ff       	call   600 <free>
  return freep;
 70f:	8b 15 88 0a 00 00    	mov    0xa88,%edx
      if((p = morecore(nunits)) == 0)
 715:	83 c4 10             	add    $0x10,%esp
 718:	85 d2                	test   %edx,%edx
 71a:	75 bc                	jne    6d8 <malloc+0x48>
        return 0;
  }
}
 71c:	8d 65 f4             	lea    -0xc(%ebp),%esp
        return 0;
 71f:	31 c0                	xor    %eax,%eax
}
 721:	5b                   	pop    %ebx
 722:	5e                   	pop    %esi
 723:	5f                   	pop    %edi
 724:	5d                   	pop    %ebp
 725:	c3                   	ret    
    if(p->s.size >= nunits){
 726:	89 d0                	mov    %edx,%eax
 728:	89 fa                	mov    %edi,%edx
 72a:	8d b6 00 00 00 00    	lea    0x0(%esi),%esi
      if(p->s.size == nunits)
 730:	39 ce                	cmp    %ecx,%esi
 732:	74 4c                	je     780 <malloc+0xf0>
        p->s.size -= nunits;
 734:	29 f1                	sub    %esi,%ecx
 736:	89 48 04             	mov    %ecx,0x4(%eax)
        p += p->s.size;
 739:	8d 04 c8             	lea    (%eax,%ecx,8),%eax
        p->s.size = nunits;
 73c:	89 70 04             	mov    %esi,0x4(%eax)
      freep = prevp;
 73f:	89 15 88 0a 00 00    	mov    %edx,0xa88
}
 745:	8d 65 f4             	lea    -0xc(%ebp),%esp
      return (void*)(p + 1);
 748:	83 c0 08             	add    $0x8,%eax
}
 74b:	5b                   	pop    %ebx
 74c:	5e                   	pop    %esi
 74d:	5f                   	pop    %edi
 74e:	5d                   	pop    %ebp
 74f:	c3                   	ret    
    base.s.ptr = freep = prevp = &base;
 750:	c7 05 88 0a 00 00 8c 	movl   $0xa8c,0xa88
 757:	0a 00 00 
    base.s.size = 0;
 75a:	bf 8c 0a 00 00       	mov    $0xa8c,%edi
    base.s.ptr = freep = prevp = &base;
 75f:	c7 05 8c 0a 00 00 8c 	movl   $0xa8c,0xa8c
 766:	0a 00 00 
  for(p = prevp->s.ptr; ; prevp = p, p = p->s.ptr){
 769:	89 fa                	mov    %edi,%edx
    base.s.size = 0;
 76b:	c7 05 90 0a 00 00 00 	movl   $0x0,0xa90
 772:	00 00 00 
    if(p->s.size >= nunits){
 775:	e9 42 ff ff ff       	jmp    6bc <malloc+0x2c>
 77a:	8d b6 00 00 00 00    	lea    0x0(%esi),%esi
        prevp->s.ptr = p->s.ptr;
 780:	8b 08                	mov    (%eax),%ecx
 782:	89 0a                	mov    %ecx,(%edx)
 784:	eb b9                	jmp    73f <malloc+0xaf>
