
_test:     file format elf32-i386


Disassembly of section .text:

00000000 <main>:
#include "types.h"
#include "stat.h"
#include "user.h"

int main(void)
{
   0:	8d 4c 24 04          	lea    0x4(%esp),%ecx
   4:	83 e4 f0             	and    $0xfffffff0,%esp
   7:	ff 71 fc             	push   -0x4(%ecx)
   a:	55                   	push   %ebp
   b:	89 e5                	mov    %esp,%ebp
   d:	56                   	push   %esi
   e:	53                   	push   %ebx
    */
    int id = init_mylock();
    id=0;
    // printf(1,"before lock\n");
    // printf(1,"acq%d\n",acquire_mylock(id));
    acquire_mylock(id);
   f:	bb 10 27 00 00       	mov    $0x2710,%ebx
{
  14:	51                   	push   %ecx
  15:	83 ec 0c             	sub    $0xc,%esp
    init_counter();
  18:	e8 ae 03 00 00       	call   3cb <init_counter>
    int ret = fork();
  1d:	e8 c9 02 00 00       	call   2eb <fork>
  22:	89 c6                	mov    %eax,%esi
    int id = init_mylock();
  24:	e8 ea 03 00 00       	call   413 <init_mylock>
    acquire_mylock(id);
  29:	83 ec 0c             	sub    $0xc,%esp
  2c:	6a 00                	push   $0x0
  2e:	e8 e8 03 00 00       	call   41b <acquire_mylock>
  33:	83 c4 10             	add    $0x10,%esp
  36:	8d b4 26 00 00 00 00 	lea    0x0(%esi,%eiz,1),%esi
  3d:	8d 76 00             	lea    0x0(%esi),%esi
    // printf(1,"after lock\n");
    for (int i = 0; i < 10000; i++)
    {
        update_cnt();
  40:	e8 8e 03 00 00       	call   3d3 <update_cnt>
    for (int i = 0; i < 10000; i++)
  45:	83 eb 01             	sub    $0x1,%ebx
  48:	75 f6                	jne    40 <main+0x40>
    }
    printf(1,"hold check: %d\n",holding_mylock(id));
  4a:	83 ec 0c             	sub    $0xc,%esp
  4d:	6a 00                	push   $0x0
  4f:	e8 d7 03 00 00       	call   42b <holding_mylock>
  54:	83 c4 0c             	add    $0xc,%esp
  57:	50                   	push   %eax
  58:	68 18 08 00 00       	push   $0x818
  5d:	6a 01                	push   $0x1
  5f:	e8 8c 04 00 00       	call   4f0 <printf>
    release_mylock(id);
  64:	c7 04 24 00 00 00 00 	movl   $0x0,(%esp)
  6b:	e8 b3 03 00 00       	call   423 <release_mylock>

    if (ret == 0)
  70:	83 c4 10             	add    $0x10,%esp
  73:	85 f6                	test   %esi,%esi
  75:	75 05                	jne    7c <main+0x7c>
        // // id = 2;
        // printf(1, "%d\n", acquire_mylock(id));
        // printf(1, "%d \n", holding_mylock(id));
        // printf(1, "%d\n", release_mylock(id));
        // printf(1, "%d \n", holding_mylock(id));
        exit();
  77:	e8 77 02 00 00       	call   2f3 <exit>
    }
    else
    {
        wait();
  7c:	e8 7a 02 00 00       	call   2fb <wait>
        // acquire_mylock(id);
        printf(1, "%d\n", display_count());
  81:	e8 55 03 00 00       	call   3db <display_count>
  86:	52                   	push   %edx
  87:	50                   	push   %eax
  88:	68 24 08 00 00       	push   $0x824
  8d:	6a 01                	push   $0x1
  8f:	e8 5c 04 00 00       	call   4f0 <printf>
        // release_mylock(id);
        exit();
  94:	e8 5a 02 00 00       	call   2f3 <exit>
  99:	66 90                	xchg   %ax,%ax
  9b:	66 90                	xchg   %ax,%ax
  9d:	66 90                	xchg   %ax,%ax
  9f:	90                   	nop

000000a0 <strcpy>:
#include "user.h"
#include "x86.h"

char*
strcpy(char *s, const char *t)
{
  a0:	55                   	push   %ebp
  char *os;

  os = s;
  while((*s++ = *t++) != 0)
  a1:	31 c0                	xor    %eax,%eax
{
  a3:	89 e5                	mov    %esp,%ebp
  a5:	53                   	push   %ebx
  a6:	8b 4d 08             	mov    0x8(%ebp),%ecx
  a9:	8b 5d 0c             	mov    0xc(%ebp),%ebx
  ac:	8d 74 26 00          	lea    0x0(%esi,%eiz,1),%esi
  while((*s++ = *t++) != 0)
  b0:	0f b6 14 03          	movzbl (%ebx,%eax,1),%edx
  b4:	88 14 01             	mov    %dl,(%ecx,%eax,1)
  b7:	83 c0 01             	add    $0x1,%eax
  ba:	84 d2                	test   %dl,%dl
  bc:	75 f2                	jne    b0 <strcpy+0x10>
    ;
  return os;
}
  be:	8b 5d fc             	mov    -0x4(%ebp),%ebx
  c1:	89 c8                	mov    %ecx,%eax
  c3:	c9                   	leave  
  c4:	c3                   	ret    
  c5:	8d b4 26 00 00 00 00 	lea    0x0(%esi,%eiz,1),%esi
  cc:	8d 74 26 00          	lea    0x0(%esi,%eiz,1),%esi

000000d0 <strcmp>:

int
strcmp(const char *p, const char *q)
{
  d0:	55                   	push   %ebp
  d1:	89 e5                	mov    %esp,%ebp
  d3:	53                   	push   %ebx
  d4:	8b 55 08             	mov    0x8(%ebp),%edx
  d7:	8b 4d 0c             	mov    0xc(%ebp),%ecx
  while(*p && *p == *q)
  da:	0f b6 02             	movzbl (%edx),%eax
  dd:	84 c0                	test   %al,%al
  df:	75 17                	jne    f8 <strcmp+0x28>
  e1:	eb 3a                	jmp    11d <strcmp+0x4d>
  e3:	8d 74 26 00          	lea    0x0(%esi,%eiz,1),%esi
  e7:	90                   	nop
  e8:	0f b6 42 01          	movzbl 0x1(%edx),%eax
    p++, q++;
  ec:	83 c2 01             	add    $0x1,%edx
  ef:	8d 59 01             	lea    0x1(%ecx),%ebx
  while(*p && *p == *q)
  f2:	84 c0                	test   %al,%al
  f4:	74 1a                	je     110 <strcmp+0x40>
    p++, q++;
  f6:	89 d9                	mov    %ebx,%ecx
  while(*p && *p == *q)
  f8:	0f b6 19             	movzbl (%ecx),%ebx
  fb:	38 c3                	cmp    %al,%bl
  fd:	74 e9                	je     e8 <strcmp+0x18>
  return (uchar)*p - (uchar)*q;
  ff:	29 d8                	sub    %ebx,%eax
}
 101:	8b 5d fc             	mov    -0x4(%ebp),%ebx
 104:	c9                   	leave  
 105:	c3                   	ret    
 106:	8d b4 26 00 00 00 00 	lea    0x0(%esi,%eiz,1),%esi
 10d:	8d 76 00             	lea    0x0(%esi),%esi
  return (uchar)*p - (uchar)*q;
 110:	0f b6 59 01          	movzbl 0x1(%ecx),%ebx
 114:	31 c0                	xor    %eax,%eax
 116:	29 d8                	sub    %ebx,%eax
}
 118:	8b 5d fc             	mov    -0x4(%ebp),%ebx
 11b:	c9                   	leave  
 11c:	c3                   	ret    
  return (uchar)*p - (uchar)*q;
 11d:	0f b6 19             	movzbl (%ecx),%ebx
 120:	31 c0                	xor    %eax,%eax
 122:	eb db                	jmp    ff <strcmp+0x2f>
 124:	8d b4 26 00 00 00 00 	lea    0x0(%esi,%eiz,1),%esi
 12b:	8d 74 26 00          	lea    0x0(%esi,%eiz,1),%esi
 12f:	90                   	nop

00000130 <strlen>:

uint
strlen(const char *s)
{
 130:	55                   	push   %ebp
 131:	89 e5                	mov    %esp,%ebp
 133:	8b 55 08             	mov    0x8(%ebp),%edx
  int n;

  for(n = 0; s[n]; n++)
 136:	80 3a 00             	cmpb   $0x0,(%edx)
 139:	74 15                	je     150 <strlen+0x20>
 13b:	31 c0                	xor    %eax,%eax
 13d:	8d 76 00             	lea    0x0(%esi),%esi
 140:	83 c0 01             	add    $0x1,%eax
 143:	80 3c 02 00          	cmpb   $0x0,(%edx,%eax,1)
 147:	89 c1                	mov    %eax,%ecx
 149:	75 f5                	jne    140 <strlen+0x10>
    ;
  return n;
}
 14b:	89 c8                	mov    %ecx,%eax
 14d:	5d                   	pop    %ebp
 14e:	c3                   	ret    
 14f:	90                   	nop
  for(n = 0; s[n]; n++)
 150:	31 c9                	xor    %ecx,%ecx
}
 152:	5d                   	pop    %ebp
 153:	89 c8                	mov    %ecx,%eax
 155:	c3                   	ret    
 156:	8d b4 26 00 00 00 00 	lea    0x0(%esi,%eiz,1),%esi
 15d:	8d 76 00             	lea    0x0(%esi),%esi

00000160 <memset>:

void*
memset(void *dst, int c, uint n)
{
 160:	55                   	push   %ebp
 161:	89 e5                	mov    %esp,%ebp
 163:	57                   	push   %edi
 164:	8b 55 08             	mov    0x8(%ebp),%edx
}

static inline void
stosb(void *addr, int data, int cnt)
{
  asm volatile("cld; rep stosb" :
 167:	8b 4d 10             	mov    0x10(%ebp),%ecx
 16a:	8b 45 0c             	mov    0xc(%ebp),%eax
 16d:	89 d7                	mov    %edx,%edi
 16f:	fc                   	cld    
 170:	f3 aa                	rep stos %al,%es:(%edi)
  stosb(dst, c, n);
  return dst;
}
 172:	8b 7d fc             	mov    -0x4(%ebp),%edi
 175:	89 d0                	mov    %edx,%eax
 177:	c9                   	leave  
 178:	c3                   	ret    
 179:	8d b4 26 00 00 00 00 	lea    0x0(%esi,%eiz,1),%esi

00000180 <strchr>:

char*
strchr(const char *s, char c)
{
 180:	55                   	push   %ebp
 181:	89 e5                	mov    %esp,%ebp
 183:	8b 45 08             	mov    0x8(%ebp),%eax
 186:	0f b6 4d 0c          	movzbl 0xc(%ebp),%ecx
  for(; *s; s++)
 18a:	0f b6 10             	movzbl (%eax),%edx
 18d:	84 d2                	test   %dl,%dl
 18f:	75 12                	jne    1a3 <strchr+0x23>
 191:	eb 1d                	jmp    1b0 <strchr+0x30>
 193:	8d 74 26 00          	lea    0x0(%esi,%eiz,1),%esi
 197:	90                   	nop
 198:	0f b6 50 01          	movzbl 0x1(%eax),%edx
 19c:	83 c0 01             	add    $0x1,%eax
 19f:	84 d2                	test   %dl,%dl
 1a1:	74 0d                	je     1b0 <strchr+0x30>
    if(*s == c)
 1a3:	38 d1                	cmp    %dl,%cl
 1a5:	75 f1                	jne    198 <strchr+0x18>
      return (char*)s;
  return 0;
}
 1a7:	5d                   	pop    %ebp
 1a8:	c3                   	ret    
 1a9:	8d b4 26 00 00 00 00 	lea    0x0(%esi,%eiz,1),%esi
  return 0;
 1b0:	31 c0                	xor    %eax,%eax
}
 1b2:	5d                   	pop    %ebp
 1b3:	c3                   	ret    
 1b4:	8d b4 26 00 00 00 00 	lea    0x0(%esi,%eiz,1),%esi
 1bb:	8d 74 26 00          	lea    0x0(%esi,%eiz,1),%esi
 1bf:	90                   	nop

000001c0 <gets>:

char*
gets(char *buf, int max)
{
 1c0:	55                   	push   %ebp
 1c1:	89 e5                	mov    %esp,%ebp
 1c3:	57                   	push   %edi
 1c4:	56                   	push   %esi
  int i, cc;
  char c;

  for(i=0; i+1 < max; ){
    cc = read(0, &c, 1);
 1c5:	8d 7d e7             	lea    -0x19(%ebp),%edi
{
 1c8:	53                   	push   %ebx
  for(i=0; i+1 < max; ){
 1c9:	31 db                	xor    %ebx,%ebx
{
 1cb:	83 ec 1c             	sub    $0x1c,%esp
  for(i=0; i+1 < max; ){
 1ce:	eb 27                	jmp    1f7 <gets+0x37>
    cc = read(0, &c, 1);
 1d0:	83 ec 04             	sub    $0x4,%esp
 1d3:	6a 01                	push   $0x1
 1d5:	57                   	push   %edi
 1d6:	6a 00                	push   $0x0
 1d8:	e8 2e 01 00 00       	call   30b <read>
    if(cc < 1)
 1dd:	83 c4 10             	add    $0x10,%esp
 1e0:	85 c0                	test   %eax,%eax
 1e2:	7e 1d                	jle    201 <gets+0x41>
      break;
    buf[i++] = c;
 1e4:	0f b6 45 e7          	movzbl -0x19(%ebp),%eax
 1e8:	8b 55 08             	mov    0x8(%ebp),%edx
 1eb:	88 44 1a ff          	mov    %al,-0x1(%edx,%ebx,1)
    if(c == '\n' || c == '\r')
 1ef:	3c 0a                	cmp    $0xa,%al
 1f1:	74 1d                	je     210 <gets+0x50>
 1f3:	3c 0d                	cmp    $0xd,%al
 1f5:	74 19                	je     210 <gets+0x50>
  for(i=0; i+1 < max; ){
 1f7:	89 de                	mov    %ebx,%esi
 1f9:	83 c3 01             	add    $0x1,%ebx
 1fc:	3b 5d 0c             	cmp    0xc(%ebp),%ebx
 1ff:	7c cf                	jl     1d0 <gets+0x10>
      break;
  }
  buf[i] = '\0';
 201:	8b 45 08             	mov    0x8(%ebp),%eax
 204:	c6 04 30 00          	movb   $0x0,(%eax,%esi,1)
  return buf;
}
 208:	8d 65 f4             	lea    -0xc(%ebp),%esp
 20b:	5b                   	pop    %ebx
 20c:	5e                   	pop    %esi
 20d:	5f                   	pop    %edi
 20e:	5d                   	pop    %ebp
 20f:	c3                   	ret    
  buf[i] = '\0';
 210:	8b 45 08             	mov    0x8(%ebp),%eax
 213:	89 de                	mov    %ebx,%esi
 215:	c6 04 30 00          	movb   $0x0,(%eax,%esi,1)
}
 219:	8d 65 f4             	lea    -0xc(%ebp),%esp
 21c:	5b                   	pop    %ebx
 21d:	5e                   	pop    %esi
 21e:	5f                   	pop    %edi
 21f:	5d                   	pop    %ebp
 220:	c3                   	ret    
 221:	8d b4 26 00 00 00 00 	lea    0x0(%esi,%eiz,1),%esi
 228:	8d b4 26 00 00 00 00 	lea    0x0(%esi,%eiz,1),%esi
 22f:	90                   	nop

00000230 <stat>:

int
stat(const char *n, struct stat *st)
{
 230:	55                   	push   %ebp
 231:	89 e5                	mov    %esp,%ebp
 233:	56                   	push   %esi
 234:	53                   	push   %ebx
  int fd;
  int r;

  fd = open(n, O_RDONLY);
 235:	83 ec 08             	sub    $0x8,%esp
 238:	6a 00                	push   $0x0
 23a:	ff 75 08             	push   0x8(%ebp)
 23d:	e8 f1 00 00 00       	call   333 <open>
  if(fd < 0)
 242:	83 c4 10             	add    $0x10,%esp
 245:	85 c0                	test   %eax,%eax
 247:	78 27                	js     270 <stat+0x40>
    return -1;
  r = fstat(fd, st);
 249:	83 ec 08             	sub    $0x8,%esp
 24c:	ff 75 0c             	push   0xc(%ebp)
 24f:	89 c3                	mov    %eax,%ebx
 251:	50                   	push   %eax
 252:	e8 f4 00 00 00       	call   34b <fstat>
  close(fd);
 257:	89 1c 24             	mov    %ebx,(%esp)
  r = fstat(fd, st);
 25a:	89 c6                	mov    %eax,%esi
  close(fd);
 25c:	e8 ba 00 00 00       	call   31b <close>
  return r;
 261:	83 c4 10             	add    $0x10,%esp
}
 264:	8d 65 f8             	lea    -0x8(%ebp),%esp
 267:	89 f0                	mov    %esi,%eax
 269:	5b                   	pop    %ebx
 26a:	5e                   	pop    %esi
 26b:	5d                   	pop    %ebp
 26c:	c3                   	ret    
 26d:	8d 76 00             	lea    0x0(%esi),%esi
    return -1;
 270:	be ff ff ff ff       	mov    $0xffffffff,%esi
 275:	eb ed                	jmp    264 <stat+0x34>
 277:	8d b4 26 00 00 00 00 	lea    0x0(%esi,%eiz,1),%esi
 27e:	66 90                	xchg   %ax,%ax

00000280 <atoi>:

int
atoi(const char *s)
{
 280:	55                   	push   %ebp
 281:	89 e5                	mov    %esp,%ebp
 283:	53                   	push   %ebx
 284:	8b 55 08             	mov    0x8(%ebp),%edx
  int n;

  n = 0;
  while('0' <= *s && *s <= '9')
 287:	0f be 02             	movsbl (%edx),%eax
 28a:	8d 48 d0             	lea    -0x30(%eax),%ecx
 28d:	80 f9 09             	cmp    $0x9,%cl
  n = 0;
 290:	b9 00 00 00 00       	mov    $0x0,%ecx
  while('0' <= *s && *s <= '9')
 295:	77 1e                	ja     2b5 <atoi+0x35>
 297:	8d b4 26 00 00 00 00 	lea    0x0(%esi,%eiz,1),%esi
 29e:	66 90                	xchg   %ax,%ax
    n = n*10 + *s++ - '0';
 2a0:	83 c2 01             	add    $0x1,%edx
 2a3:	8d 0c 89             	lea    (%ecx,%ecx,4),%ecx
 2a6:	8d 4c 48 d0          	lea    -0x30(%eax,%ecx,2),%ecx
  while('0' <= *s && *s <= '9')
 2aa:	0f be 02             	movsbl (%edx),%eax
 2ad:	8d 58 d0             	lea    -0x30(%eax),%ebx
 2b0:	80 fb 09             	cmp    $0x9,%bl
 2b3:	76 eb                	jbe    2a0 <atoi+0x20>
  return n;
}
 2b5:	8b 5d fc             	mov    -0x4(%ebp),%ebx
 2b8:	89 c8                	mov    %ecx,%eax
 2ba:	c9                   	leave  
 2bb:	c3                   	ret    
 2bc:	8d 74 26 00          	lea    0x0(%esi,%eiz,1),%esi

000002c0 <memmove>:

void*
memmove(void *vdst, const void *vsrc, int n)
{
 2c0:	55                   	push   %ebp
 2c1:	89 e5                	mov    %esp,%ebp
 2c3:	57                   	push   %edi
 2c4:	8b 45 10             	mov    0x10(%ebp),%eax
 2c7:	8b 55 08             	mov    0x8(%ebp),%edx
 2ca:	56                   	push   %esi
 2cb:	8b 75 0c             	mov    0xc(%ebp),%esi
  char *dst;
  const char *src;

  dst = vdst;
  src = vsrc;
  while(n-- > 0)
 2ce:	85 c0                	test   %eax,%eax
 2d0:	7e 13                	jle    2e5 <memmove+0x25>
 2d2:	01 d0                	add    %edx,%eax
  dst = vdst;
 2d4:	89 d7                	mov    %edx,%edi
 2d6:	8d b4 26 00 00 00 00 	lea    0x0(%esi,%eiz,1),%esi
 2dd:	8d 76 00             	lea    0x0(%esi),%esi
    *dst++ = *src++;
 2e0:	a4                   	movsb  %ds:(%esi),%es:(%edi)
  while(n-- > 0)
 2e1:	39 f8                	cmp    %edi,%eax
 2e3:	75 fb                	jne    2e0 <memmove+0x20>
  return vdst;
}
 2e5:	5e                   	pop    %esi
 2e6:	89 d0                	mov    %edx,%eax
 2e8:	5f                   	pop    %edi
 2e9:	5d                   	pop    %ebp
 2ea:	c3                   	ret    

000002eb <fork>:
  name: \
    movl $SYS_ ## name, %eax; \
    int $T_SYSCALL; \
    ret

SYSCALL(fork)
 2eb:	b8 01 00 00 00       	mov    $0x1,%eax
 2f0:	cd 40                	int    $0x40
 2f2:	c3                   	ret    

000002f3 <exit>:
SYSCALL(exit)
 2f3:	b8 02 00 00 00       	mov    $0x2,%eax
 2f8:	cd 40                	int    $0x40
 2fa:	c3                   	ret    

000002fb <wait>:
SYSCALL(wait)
 2fb:	b8 03 00 00 00       	mov    $0x3,%eax
 300:	cd 40                	int    $0x40
 302:	c3                   	ret    

00000303 <pipe>:
SYSCALL(pipe)
 303:	b8 04 00 00 00       	mov    $0x4,%eax
 308:	cd 40                	int    $0x40
 30a:	c3                   	ret    

0000030b <read>:
SYSCALL(read)
 30b:	b8 05 00 00 00       	mov    $0x5,%eax
 310:	cd 40                	int    $0x40
 312:	c3                   	ret    

00000313 <write>:
SYSCALL(write)
 313:	b8 10 00 00 00       	mov    $0x10,%eax
 318:	cd 40                	int    $0x40
 31a:	c3                   	ret    

0000031b <close>:
SYSCALL(close)
 31b:	b8 15 00 00 00       	mov    $0x15,%eax
 320:	cd 40                	int    $0x40
 322:	c3                   	ret    

00000323 <kill>:
SYSCALL(kill)
 323:	b8 06 00 00 00       	mov    $0x6,%eax
 328:	cd 40                	int    $0x40
 32a:	c3                   	ret    

0000032b <exec>:
SYSCALL(exec)
 32b:	b8 07 00 00 00       	mov    $0x7,%eax
 330:	cd 40                	int    $0x40
 332:	c3                   	ret    

00000333 <open>:
SYSCALL(open)
 333:	b8 0f 00 00 00       	mov    $0xf,%eax
 338:	cd 40                	int    $0x40
 33a:	c3                   	ret    

0000033b <mknod>:
SYSCALL(mknod)
 33b:	b8 11 00 00 00       	mov    $0x11,%eax
 340:	cd 40                	int    $0x40
 342:	c3                   	ret    

00000343 <unlink>:
SYSCALL(unlink)
 343:	b8 12 00 00 00       	mov    $0x12,%eax
 348:	cd 40                	int    $0x40
 34a:	c3                   	ret    

0000034b <fstat>:
SYSCALL(fstat)
 34b:	b8 08 00 00 00       	mov    $0x8,%eax
 350:	cd 40                	int    $0x40
 352:	c3                   	ret    

00000353 <link>:
SYSCALL(link)
 353:	b8 13 00 00 00       	mov    $0x13,%eax
 358:	cd 40                	int    $0x40
 35a:	c3                   	ret    

0000035b <mkdir>:
SYSCALL(mkdir)
 35b:	b8 14 00 00 00       	mov    $0x14,%eax
 360:	cd 40                	int    $0x40
 362:	c3                   	ret    

00000363 <chdir>:
SYSCALL(chdir)
 363:	b8 09 00 00 00       	mov    $0x9,%eax
 368:	cd 40                	int    $0x40
 36a:	c3                   	ret    

0000036b <dup>:
SYSCALL(dup)
 36b:	b8 0a 00 00 00       	mov    $0xa,%eax
 370:	cd 40                	int    $0x40
 372:	c3                   	ret    

00000373 <getpid>:
SYSCALL(getpid)
 373:	b8 0b 00 00 00       	mov    $0xb,%eax
 378:	cd 40                	int    $0x40
 37a:	c3                   	ret    

0000037b <sbrk>:
SYSCALL(sbrk)
 37b:	b8 0c 00 00 00       	mov    $0xc,%eax
 380:	cd 40                	int    $0x40
 382:	c3                   	ret    

00000383 <sleep>:
SYSCALL(sleep)
 383:	b8 0d 00 00 00       	mov    $0xd,%eax
 388:	cd 40                	int    $0x40
 38a:	c3                   	ret    

0000038b <uptime>:
SYSCALL(uptime)
 38b:	b8 0e 00 00 00       	mov    $0xe,%eax
 390:	cd 40                	int    $0x40
 392:	c3                   	ret    

00000393 <hello>:
SYSCALL(hello)
 393:	b8 16 00 00 00       	mov    $0x16,%eax
 398:	cd 40                	int    $0x40
 39a:	c3                   	ret    

0000039b <helloYou>:
SYSCALL(helloYou)
 39b:	b8 17 00 00 00       	mov    $0x17,%eax
 3a0:	cd 40                	int    $0x40
 3a2:	c3                   	ret    

000003a3 <getppid>:
SYSCALL(getppid)
 3a3:	b8 18 00 00 00       	mov    $0x18,%eax
 3a8:	cd 40                	int    $0x40
 3aa:	c3                   	ret    

000003ab <get_siblings_info>:
SYSCALL(get_siblings_info)
 3ab:	b8 19 00 00 00       	mov    $0x19,%eax
 3b0:	cd 40                	int    $0x40
 3b2:	c3                   	ret    

000003b3 <signalProcess>:
SYSCALL(signalProcess)
 3b3:	b8 1a 00 00 00       	mov    $0x1a,%eax
 3b8:	cd 40                	int    $0x40
 3ba:	c3                   	ret    

000003bb <numvp>:
SYSCALL(numvp)
 3bb:	b8 1b 00 00 00       	mov    $0x1b,%eax
 3c0:	cd 40                	int    $0x40
 3c2:	c3                   	ret    

000003c3 <numpp>:
SYSCALL(numpp)
 3c3:	b8 1c 00 00 00       	mov    $0x1c,%eax
 3c8:	cd 40                	int    $0x40
 3ca:	c3                   	ret    

000003cb <init_counter>:

SYSCALL(init_counter)
 3cb:	b8 1d 00 00 00       	mov    $0x1d,%eax
 3d0:	cd 40                	int    $0x40
 3d2:	c3                   	ret    

000003d3 <update_cnt>:
SYSCALL(update_cnt)
 3d3:	b8 1e 00 00 00       	mov    $0x1e,%eax
 3d8:	cd 40                	int    $0x40
 3da:	c3                   	ret    

000003db <display_count>:
SYSCALL(display_count)
 3db:	b8 1f 00 00 00       	mov    $0x1f,%eax
 3e0:	cd 40                	int    $0x40
 3e2:	c3                   	ret    

000003e3 <init_counter_1>:
SYSCALL(init_counter_1)
 3e3:	b8 20 00 00 00       	mov    $0x20,%eax
 3e8:	cd 40                	int    $0x40
 3ea:	c3                   	ret    

000003eb <update_cnt_1>:
SYSCALL(update_cnt_1)
 3eb:	b8 21 00 00 00       	mov    $0x21,%eax
 3f0:	cd 40                	int    $0x40
 3f2:	c3                   	ret    

000003f3 <display_count_1>:
SYSCALL(display_count_1)
 3f3:	b8 22 00 00 00       	mov    $0x22,%eax
 3f8:	cd 40                	int    $0x40
 3fa:	c3                   	ret    

000003fb <init_counter_2>:
SYSCALL(init_counter_2)
 3fb:	b8 23 00 00 00       	mov    $0x23,%eax
 400:	cd 40                	int    $0x40
 402:	c3                   	ret    

00000403 <update_cnt_2>:
SYSCALL(update_cnt_2)
 403:	b8 24 00 00 00       	mov    $0x24,%eax
 408:	cd 40                	int    $0x40
 40a:	c3                   	ret    

0000040b <display_count_2>:
SYSCALL(display_count_2)
 40b:	b8 25 00 00 00       	mov    $0x25,%eax
 410:	cd 40                	int    $0x40
 412:	c3                   	ret    

00000413 <init_mylock>:
SYSCALL(init_mylock)
 413:	b8 26 00 00 00       	mov    $0x26,%eax
 418:	cd 40                	int    $0x40
 41a:	c3                   	ret    

0000041b <acquire_mylock>:
SYSCALL(acquire_mylock)
 41b:	b8 27 00 00 00       	mov    $0x27,%eax
 420:	cd 40                	int    $0x40
 422:	c3                   	ret    

00000423 <release_mylock>:
SYSCALL(release_mylock)
 423:	b8 28 00 00 00       	mov    $0x28,%eax
 428:	cd 40                	int    $0x40
 42a:	c3                   	ret    

0000042b <holding_mylock>:
 42b:	b8 29 00 00 00       	mov    $0x29,%eax
 430:	cd 40                	int    $0x40
 432:	c3                   	ret    
 433:	66 90                	xchg   %ax,%ax
 435:	66 90                	xchg   %ax,%ax
 437:	66 90                	xchg   %ax,%ax
 439:	66 90                	xchg   %ax,%ax
 43b:	66 90                	xchg   %ax,%ax
 43d:	66 90                	xchg   %ax,%ax
 43f:	90                   	nop

00000440 <printint>:
  write(fd, &c, 1);
}

static void
printint(int fd, int xx, int base, int sgn)
{
 440:	55                   	push   %ebp
 441:	89 e5                	mov    %esp,%ebp
 443:	57                   	push   %edi
 444:	56                   	push   %esi
 445:	53                   	push   %ebx
 446:	83 ec 3c             	sub    $0x3c,%esp
 449:	89 4d c4             	mov    %ecx,-0x3c(%ebp)
  uint x;

  neg = 0;
  if(sgn && xx < 0){
    neg = 1;
    x = -xx;
 44c:	89 d1                	mov    %edx,%ecx
{
 44e:	89 45 b8             	mov    %eax,-0x48(%ebp)
  if(sgn && xx < 0){
 451:	85 d2                	test   %edx,%edx
 453:	0f 89 7f 00 00 00    	jns    4d8 <printint+0x98>
 459:	f6 45 08 01          	testb  $0x1,0x8(%ebp)
 45d:	74 79                	je     4d8 <printint+0x98>
    neg = 1;
 45f:	c7 45 bc 01 00 00 00 	movl   $0x1,-0x44(%ebp)
    x = -xx;
 466:	f7 d9                	neg    %ecx
  } else {
    x = xx;
  }

  i = 0;
 468:	31 db                	xor    %ebx,%ebx
 46a:	8d 75 d7             	lea    -0x29(%ebp),%esi
 46d:	8d 76 00             	lea    0x0(%esi),%esi
  do{
    buf[i++] = digits[x % base];
 470:	89 c8                	mov    %ecx,%eax
 472:	31 d2                	xor    %edx,%edx
 474:	89 cf                	mov    %ecx,%edi
 476:	f7 75 c4             	divl   -0x3c(%ebp)
 479:	0f b6 92 88 08 00 00 	movzbl 0x888(%edx),%edx
 480:	89 45 c0             	mov    %eax,-0x40(%ebp)
 483:	89 d8                	mov    %ebx,%eax
 485:	8d 5b 01             	lea    0x1(%ebx),%ebx
  }while((x /= base) != 0);
 488:	8b 4d c0             	mov    -0x40(%ebp),%ecx
    buf[i++] = digits[x % base];
 48b:	88 14 1e             	mov    %dl,(%esi,%ebx,1)
  }while((x /= base) != 0);
 48e:	39 7d c4             	cmp    %edi,-0x3c(%ebp)
 491:	76 dd                	jbe    470 <printint+0x30>
  if(neg)
 493:	8b 4d bc             	mov    -0x44(%ebp),%ecx
 496:	85 c9                	test   %ecx,%ecx
 498:	74 0c                	je     4a6 <printint+0x66>
    buf[i++] = '-';
 49a:	c6 44 1d d8 2d       	movb   $0x2d,-0x28(%ebp,%ebx,1)
    buf[i++] = digits[x % base];
 49f:	89 d8                	mov    %ebx,%eax
    buf[i++] = '-';
 4a1:	ba 2d 00 00 00       	mov    $0x2d,%edx

  while(--i >= 0)
 4a6:	8b 7d b8             	mov    -0x48(%ebp),%edi
 4a9:	8d 5c 05 d7          	lea    -0x29(%ebp,%eax,1),%ebx
 4ad:	eb 07                	jmp    4b6 <printint+0x76>
 4af:	90                   	nop
    putc(fd, buf[i]);
 4b0:	0f b6 13             	movzbl (%ebx),%edx
 4b3:	83 eb 01             	sub    $0x1,%ebx
  write(fd, &c, 1);
 4b6:	83 ec 04             	sub    $0x4,%esp
 4b9:	88 55 d7             	mov    %dl,-0x29(%ebp)
 4bc:	6a 01                	push   $0x1
 4be:	56                   	push   %esi
 4bf:	57                   	push   %edi
 4c0:	e8 4e fe ff ff       	call   313 <write>
  while(--i >= 0)
 4c5:	83 c4 10             	add    $0x10,%esp
 4c8:	39 de                	cmp    %ebx,%esi
 4ca:	75 e4                	jne    4b0 <printint+0x70>
}
 4cc:	8d 65 f4             	lea    -0xc(%ebp),%esp
 4cf:	5b                   	pop    %ebx
 4d0:	5e                   	pop    %esi
 4d1:	5f                   	pop    %edi
 4d2:	5d                   	pop    %ebp
 4d3:	c3                   	ret    
 4d4:	8d 74 26 00          	lea    0x0(%esi,%eiz,1),%esi
  neg = 0;
 4d8:	c7 45 bc 00 00 00 00 	movl   $0x0,-0x44(%ebp)
 4df:	eb 87                	jmp    468 <printint+0x28>
 4e1:	8d b4 26 00 00 00 00 	lea    0x0(%esi,%eiz,1),%esi
 4e8:	8d b4 26 00 00 00 00 	lea    0x0(%esi,%eiz,1),%esi
 4ef:	90                   	nop

000004f0 <printf>:

// Print to the given fd. Only understands %d, %x, %p, %s.
void
printf(int fd, const char *fmt, ...)
{
 4f0:	55                   	push   %ebp
 4f1:	89 e5                	mov    %esp,%ebp
 4f3:	57                   	push   %edi
 4f4:	56                   	push   %esi
 4f5:	53                   	push   %ebx
 4f6:	83 ec 2c             	sub    $0x2c,%esp
  int c, i, state;
  uint *ap;

  state = 0;
  ap = (uint*)(void*)&fmt + 1;
  for(i = 0; fmt[i]; i++){
 4f9:	8b 5d 0c             	mov    0xc(%ebp),%ebx
{
 4fc:	8b 75 08             	mov    0x8(%ebp),%esi
  for(i = 0; fmt[i]; i++){
 4ff:	0f b6 13             	movzbl (%ebx),%edx
 502:	84 d2                	test   %dl,%dl
 504:	74 6a                	je     570 <printf+0x80>
  ap = (uint*)(void*)&fmt + 1;
 506:	8d 45 10             	lea    0x10(%ebp),%eax
 509:	83 c3 01             	add    $0x1,%ebx
  write(fd, &c, 1);
 50c:	8d 7d e7             	lea    -0x19(%ebp),%edi
  state = 0;
 50f:	31 c9                	xor    %ecx,%ecx
  ap = (uint*)(void*)&fmt + 1;
 511:	89 45 d0             	mov    %eax,-0x30(%ebp)
 514:	eb 36                	jmp    54c <printf+0x5c>
 516:	8d b4 26 00 00 00 00 	lea    0x0(%esi,%eiz,1),%esi
 51d:	8d 76 00             	lea    0x0(%esi),%esi
 520:	89 4d d4             	mov    %ecx,-0x2c(%ebp)
    c = fmt[i] & 0xff;
    if(state == 0){
      if(c == '%'){
        state = '%';
 523:	b9 25 00 00 00       	mov    $0x25,%ecx
      if(c == '%'){
 528:	83 f8 25             	cmp    $0x25,%eax
 52b:	74 15                	je     542 <printf+0x52>
  write(fd, &c, 1);
 52d:	83 ec 04             	sub    $0x4,%esp
 530:	88 55 e7             	mov    %dl,-0x19(%ebp)
 533:	6a 01                	push   $0x1
 535:	57                   	push   %edi
 536:	56                   	push   %esi
 537:	e8 d7 fd ff ff       	call   313 <write>
 53c:	8b 4d d4             	mov    -0x2c(%ebp),%ecx
      } else {
        putc(fd, c);
 53f:	83 c4 10             	add    $0x10,%esp
  for(i = 0; fmt[i]; i++){
 542:	0f b6 13             	movzbl (%ebx),%edx
 545:	83 c3 01             	add    $0x1,%ebx
 548:	84 d2                	test   %dl,%dl
 54a:	74 24                	je     570 <printf+0x80>
    c = fmt[i] & 0xff;
 54c:	0f b6 c2             	movzbl %dl,%eax
    if(state == 0){
 54f:	85 c9                	test   %ecx,%ecx
 551:	74 cd                	je     520 <printf+0x30>
      }
    } else if(state == '%'){
 553:	83 f9 25             	cmp    $0x25,%ecx
 556:	75 ea                	jne    542 <printf+0x52>
      if(c == 'd'){
 558:	83 f8 25             	cmp    $0x25,%eax
 55b:	0f 84 07 01 00 00    	je     668 <printf+0x178>
 561:	83 e8 63             	sub    $0x63,%eax
 564:	83 f8 15             	cmp    $0x15,%eax
 567:	77 17                	ja     580 <printf+0x90>
 569:	ff 24 85 30 08 00 00 	jmp    *0x830(,%eax,4)
        putc(fd, c);
      }
      state = 0;
    }
  }
}
 570:	8d 65 f4             	lea    -0xc(%ebp),%esp
 573:	5b                   	pop    %ebx
 574:	5e                   	pop    %esi
 575:	5f                   	pop    %edi
 576:	5d                   	pop    %ebp
 577:	c3                   	ret    
 578:	8d b4 26 00 00 00 00 	lea    0x0(%esi,%eiz,1),%esi
 57f:	90                   	nop
  write(fd, &c, 1);
 580:	83 ec 04             	sub    $0x4,%esp
 583:	88 55 d4             	mov    %dl,-0x2c(%ebp)
 586:	6a 01                	push   $0x1
 588:	57                   	push   %edi
 589:	56                   	push   %esi
 58a:	c6 45 e7 25          	movb   $0x25,-0x19(%ebp)
 58e:	e8 80 fd ff ff       	call   313 <write>
        putc(fd, c);
 593:	0f b6 55 d4          	movzbl -0x2c(%ebp),%edx
  write(fd, &c, 1);
 597:	83 c4 0c             	add    $0xc,%esp
 59a:	88 55 e7             	mov    %dl,-0x19(%ebp)
 59d:	6a 01                	push   $0x1
 59f:	57                   	push   %edi
 5a0:	56                   	push   %esi
 5a1:	e8 6d fd ff ff       	call   313 <write>
        putc(fd, c);
 5a6:	83 c4 10             	add    $0x10,%esp
      state = 0;
 5a9:	31 c9                	xor    %ecx,%ecx
 5ab:	eb 95                	jmp    542 <printf+0x52>
 5ad:	8d 76 00             	lea    0x0(%esi),%esi
        printint(fd, *ap, 16, 0);
 5b0:	83 ec 0c             	sub    $0xc,%esp
 5b3:	b9 10 00 00 00       	mov    $0x10,%ecx
 5b8:	6a 00                	push   $0x0
 5ba:	8b 45 d0             	mov    -0x30(%ebp),%eax
 5bd:	8b 10                	mov    (%eax),%edx
 5bf:	89 f0                	mov    %esi,%eax
 5c1:	e8 7a fe ff ff       	call   440 <printint>
        ap++;
 5c6:	83 45 d0 04          	addl   $0x4,-0x30(%ebp)
 5ca:	83 c4 10             	add    $0x10,%esp
      state = 0;
 5cd:	31 c9                	xor    %ecx,%ecx
 5cf:	e9 6e ff ff ff       	jmp    542 <printf+0x52>
 5d4:	8d 74 26 00          	lea    0x0(%esi,%eiz,1),%esi
        s = (char*)*ap;
 5d8:	8b 45 d0             	mov    -0x30(%ebp),%eax
 5db:	8b 10                	mov    (%eax),%edx
        ap++;
 5dd:	83 c0 04             	add    $0x4,%eax
 5e0:	89 45 d0             	mov    %eax,-0x30(%ebp)
        if(s == 0)
 5e3:	85 d2                	test   %edx,%edx
 5e5:	0f 84 8d 00 00 00    	je     678 <printf+0x188>
        while(*s != 0){
 5eb:	0f b6 02             	movzbl (%edx),%eax
      state = 0;
 5ee:	31 c9                	xor    %ecx,%ecx
        while(*s != 0){
 5f0:	84 c0                	test   %al,%al
 5f2:	0f 84 4a ff ff ff    	je     542 <printf+0x52>
 5f8:	89 5d d4             	mov    %ebx,-0x2c(%ebp)
 5fb:	89 d3                	mov    %edx,%ebx
 5fd:	8d 76 00             	lea    0x0(%esi),%esi
  write(fd, &c, 1);
 600:	83 ec 04             	sub    $0x4,%esp
          s++;
 603:	83 c3 01             	add    $0x1,%ebx
 606:	88 45 e7             	mov    %al,-0x19(%ebp)
  write(fd, &c, 1);
 609:	6a 01                	push   $0x1
 60b:	57                   	push   %edi
 60c:	56                   	push   %esi
 60d:	e8 01 fd ff ff       	call   313 <write>
        while(*s != 0){
 612:	0f b6 03             	movzbl (%ebx),%eax
 615:	83 c4 10             	add    $0x10,%esp
 618:	84 c0                	test   %al,%al
 61a:	75 e4                	jne    600 <printf+0x110>
      state = 0;
 61c:	8b 5d d4             	mov    -0x2c(%ebp),%ebx
 61f:	31 c9                	xor    %ecx,%ecx
 621:	e9 1c ff ff ff       	jmp    542 <printf+0x52>
 626:	8d b4 26 00 00 00 00 	lea    0x0(%esi,%eiz,1),%esi
 62d:	8d 76 00             	lea    0x0(%esi),%esi
        printint(fd, *ap, 10, 1);
 630:	83 ec 0c             	sub    $0xc,%esp
 633:	b9 0a 00 00 00       	mov    $0xa,%ecx
 638:	6a 01                	push   $0x1
 63a:	e9 7b ff ff ff       	jmp    5ba <printf+0xca>
 63f:	90                   	nop
        putc(fd, *ap);
 640:	8b 45 d0             	mov    -0x30(%ebp),%eax
  write(fd, &c, 1);
 643:	83 ec 04             	sub    $0x4,%esp
        putc(fd, *ap);
 646:	8b 00                	mov    (%eax),%eax
  write(fd, &c, 1);
 648:	6a 01                	push   $0x1
 64a:	57                   	push   %edi
 64b:	56                   	push   %esi
        putc(fd, *ap);
 64c:	88 45 e7             	mov    %al,-0x19(%ebp)
  write(fd, &c, 1);
 64f:	e8 bf fc ff ff       	call   313 <write>
        ap++;
 654:	83 45 d0 04          	addl   $0x4,-0x30(%ebp)
 658:	83 c4 10             	add    $0x10,%esp
      state = 0;
 65b:	31 c9                	xor    %ecx,%ecx
 65d:	e9 e0 fe ff ff       	jmp    542 <printf+0x52>
 662:	8d b6 00 00 00 00    	lea    0x0(%esi),%esi
        putc(fd, c);
 668:	88 55 e7             	mov    %dl,-0x19(%ebp)
  write(fd, &c, 1);
 66b:	83 ec 04             	sub    $0x4,%esp
 66e:	e9 2a ff ff ff       	jmp    59d <printf+0xad>
 673:	8d 74 26 00          	lea    0x0(%esi,%eiz,1),%esi
 677:	90                   	nop
          s = "(null)";
 678:	ba 28 08 00 00       	mov    $0x828,%edx
        while(*s != 0){
 67d:	89 5d d4             	mov    %ebx,-0x2c(%ebp)
 680:	b8 28 00 00 00       	mov    $0x28,%eax
 685:	89 d3                	mov    %edx,%ebx
 687:	e9 74 ff ff ff       	jmp    600 <printf+0x110>
 68c:	66 90                	xchg   %ax,%ax
 68e:	66 90                	xchg   %ax,%ax

00000690 <free>:
static Header base;
static Header *freep;

void
free(void *ap)
{
 690:	55                   	push   %ebp
  Header *bp, *p;

  bp = (Header*)ap - 1;
  for(p = freep; !(bp > p && bp < p->s.ptr); p = p->s.ptr)
 691:	a1 38 0b 00 00       	mov    0xb38,%eax
{
 696:	89 e5                	mov    %esp,%ebp
 698:	57                   	push   %edi
 699:	56                   	push   %esi
 69a:	53                   	push   %ebx
 69b:	8b 5d 08             	mov    0x8(%ebp),%ebx
  bp = (Header*)ap - 1;
 69e:	8d 4b f8             	lea    -0x8(%ebx),%ecx
  for(p = freep; !(bp > p && bp < p->s.ptr); p = p->s.ptr)
 6a1:	8d b4 26 00 00 00 00 	lea    0x0(%esi,%eiz,1),%esi
 6a8:	89 c2                	mov    %eax,%edx
 6aa:	8b 00                	mov    (%eax),%eax
 6ac:	39 ca                	cmp    %ecx,%edx
 6ae:	73 30                	jae    6e0 <free+0x50>
 6b0:	39 c1                	cmp    %eax,%ecx
 6b2:	72 04                	jb     6b8 <free+0x28>
    if(p >= p->s.ptr && (bp > p || bp < p->s.ptr))
 6b4:	39 c2                	cmp    %eax,%edx
 6b6:	72 f0                	jb     6a8 <free+0x18>
      break;
  if(bp + bp->s.size == p->s.ptr){
 6b8:	8b 73 fc             	mov    -0x4(%ebx),%esi
 6bb:	8d 3c f1             	lea    (%ecx,%esi,8),%edi
 6be:	39 f8                	cmp    %edi,%eax
 6c0:	74 30                	je     6f2 <free+0x62>
    bp->s.size += p->s.ptr->s.size;
    bp->s.ptr = p->s.ptr->s.ptr;
 6c2:	89 43 f8             	mov    %eax,-0x8(%ebx)
  } else
    bp->s.ptr = p->s.ptr;
  if(p + p->s.size == bp){
 6c5:	8b 42 04             	mov    0x4(%edx),%eax
 6c8:	8d 34 c2             	lea    (%edx,%eax,8),%esi
 6cb:	39 f1                	cmp    %esi,%ecx
 6cd:	74 3a                	je     709 <free+0x79>
    p->s.size += bp->s.size;
    p->s.ptr = bp->s.ptr;
 6cf:	89 0a                	mov    %ecx,(%edx)
  } else
    p->s.ptr = bp;
  freep = p;
}
 6d1:	5b                   	pop    %ebx
  freep = p;
 6d2:	89 15 38 0b 00 00    	mov    %edx,0xb38
}
 6d8:	5e                   	pop    %esi
 6d9:	5f                   	pop    %edi
 6da:	5d                   	pop    %ebp
 6db:	c3                   	ret    
 6dc:	8d 74 26 00          	lea    0x0(%esi,%eiz,1),%esi
    if(p >= p->s.ptr && (bp > p || bp < p->s.ptr))
 6e0:	39 c2                	cmp    %eax,%edx
 6e2:	72 c4                	jb     6a8 <free+0x18>
 6e4:	39 c1                	cmp    %eax,%ecx
 6e6:	73 c0                	jae    6a8 <free+0x18>
  if(bp + bp->s.size == p->s.ptr){
 6e8:	8b 73 fc             	mov    -0x4(%ebx),%esi
 6eb:	8d 3c f1             	lea    (%ecx,%esi,8),%edi
 6ee:	39 f8                	cmp    %edi,%eax
 6f0:	75 d0                	jne    6c2 <free+0x32>
    bp->s.size += p->s.ptr->s.size;
 6f2:	03 70 04             	add    0x4(%eax),%esi
 6f5:	89 73 fc             	mov    %esi,-0x4(%ebx)
    bp->s.ptr = p->s.ptr->s.ptr;
 6f8:	8b 02                	mov    (%edx),%eax
 6fa:	8b 00                	mov    (%eax),%eax
 6fc:	89 43 f8             	mov    %eax,-0x8(%ebx)
  if(p + p->s.size == bp){
 6ff:	8b 42 04             	mov    0x4(%edx),%eax
 702:	8d 34 c2             	lea    (%edx,%eax,8),%esi
 705:	39 f1                	cmp    %esi,%ecx
 707:	75 c6                	jne    6cf <free+0x3f>
    p->s.size += bp->s.size;
 709:	03 43 fc             	add    -0x4(%ebx),%eax
  freep = p;
 70c:	89 15 38 0b 00 00    	mov    %edx,0xb38
    p->s.size += bp->s.size;
 712:	89 42 04             	mov    %eax,0x4(%edx)
    p->s.ptr = bp->s.ptr;
 715:	8b 4b f8             	mov    -0x8(%ebx),%ecx
 718:	89 0a                	mov    %ecx,(%edx)
}
 71a:	5b                   	pop    %ebx
 71b:	5e                   	pop    %esi
 71c:	5f                   	pop    %edi
 71d:	5d                   	pop    %ebp
 71e:	c3                   	ret    
 71f:	90                   	nop

00000720 <malloc>:
  return freep;
}

void*
malloc(uint nbytes)
{
 720:	55                   	push   %ebp
 721:	89 e5                	mov    %esp,%ebp
 723:	57                   	push   %edi
 724:	56                   	push   %esi
 725:	53                   	push   %ebx
 726:	83 ec 1c             	sub    $0x1c,%esp
  Header *p, *prevp;
  uint nunits;

  nunits = (nbytes + sizeof(Header) - 1)/sizeof(Header) + 1;
 729:	8b 45 08             	mov    0x8(%ebp),%eax
  if((prevp = freep) == 0){
 72c:	8b 3d 38 0b 00 00    	mov    0xb38,%edi
  nunits = (nbytes + sizeof(Header) - 1)/sizeof(Header) + 1;
 732:	8d 70 07             	lea    0x7(%eax),%esi
 735:	c1 ee 03             	shr    $0x3,%esi
 738:	83 c6 01             	add    $0x1,%esi
  if((prevp = freep) == 0){
 73b:	85 ff                	test   %edi,%edi
 73d:	0f 84 9d 00 00 00    	je     7e0 <malloc+0xc0>
    base.s.ptr = freep = prevp = &base;
    base.s.size = 0;
  }
  for(p = prevp->s.ptr; ; prevp = p, p = p->s.ptr){
 743:	8b 17                	mov    (%edi),%edx
    if(p->s.size >= nunits){
 745:	8b 4a 04             	mov    0x4(%edx),%ecx
 748:	39 f1                	cmp    %esi,%ecx
 74a:	73 6a                	jae    7b6 <malloc+0x96>
 74c:	bb 00 10 00 00       	mov    $0x1000,%ebx
 751:	39 de                	cmp    %ebx,%esi
 753:	0f 43 de             	cmovae %esi,%ebx
  p = sbrk(nu * sizeof(Header));
 756:	8d 04 dd 00 00 00 00 	lea    0x0(,%ebx,8),%eax
 75d:	89 45 e4             	mov    %eax,-0x1c(%ebp)
 760:	eb 17                	jmp    779 <malloc+0x59>
 762:	8d b6 00 00 00 00    	lea    0x0(%esi),%esi
  for(p = prevp->s.ptr; ; prevp = p, p = p->s.ptr){
 768:	8b 02                	mov    (%edx),%eax
    if(p->s.size >= nunits){
 76a:	8b 48 04             	mov    0x4(%eax),%ecx
 76d:	39 f1                	cmp    %esi,%ecx
 76f:	73 4f                	jae    7c0 <malloc+0xa0>
        p->s.size = nunits;
      }
      freep = prevp;
      return (void*)(p + 1);
    }
    if(p == freep)
 771:	8b 3d 38 0b 00 00    	mov    0xb38,%edi
 777:	89 c2                	mov    %eax,%edx
 779:	39 d7                	cmp    %edx,%edi
 77b:	75 eb                	jne    768 <malloc+0x48>
  p = sbrk(nu * sizeof(Header));
 77d:	83 ec 0c             	sub    $0xc,%esp
 780:	ff 75 e4             	push   -0x1c(%ebp)
 783:	e8 f3 fb ff ff       	call   37b <sbrk>
  if(p == (char*)-1)
 788:	83 c4 10             	add    $0x10,%esp
 78b:	83 f8 ff             	cmp    $0xffffffff,%eax
 78e:	74 1c                	je     7ac <malloc+0x8c>
  hp->s.size = nu;
 790:	89 58 04             	mov    %ebx,0x4(%eax)
  free((void*)(hp + 1));
 793:	83 ec 0c             	sub    $0xc,%esp
 796:	83 c0 08             	add    $0x8,%eax
 799:	50                   	push   %eax
 79a:	e8 f1 fe ff ff       	call   690 <free>
  return freep;
 79f:	8b 15 38 0b 00 00    	mov    0xb38,%edx
      if((p = morecore(nunits)) == 0)
 7a5:	83 c4 10             	add    $0x10,%esp
 7a8:	85 d2                	test   %edx,%edx
 7aa:	75 bc                	jne    768 <malloc+0x48>
        return 0;
  }
}
 7ac:	8d 65 f4             	lea    -0xc(%ebp),%esp
        return 0;
 7af:	31 c0                	xor    %eax,%eax
}
 7b1:	5b                   	pop    %ebx
 7b2:	5e                   	pop    %esi
 7b3:	5f                   	pop    %edi
 7b4:	5d                   	pop    %ebp
 7b5:	c3                   	ret    
    if(p->s.size >= nunits){
 7b6:	89 d0                	mov    %edx,%eax
 7b8:	89 fa                	mov    %edi,%edx
 7ba:	8d b6 00 00 00 00    	lea    0x0(%esi),%esi
      if(p->s.size == nunits)
 7c0:	39 ce                	cmp    %ecx,%esi
 7c2:	74 4c                	je     810 <malloc+0xf0>
        p->s.size -= nunits;
 7c4:	29 f1                	sub    %esi,%ecx
 7c6:	89 48 04             	mov    %ecx,0x4(%eax)
        p += p->s.size;
 7c9:	8d 04 c8             	lea    (%eax,%ecx,8),%eax
        p->s.size = nunits;
 7cc:	89 70 04             	mov    %esi,0x4(%eax)
      freep = prevp;
 7cf:	89 15 38 0b 00 00    	mov    %edx,0xb38
}
 7d5:	8d 65 f4             	lea    -0xc(%ebp),%esp
      return (void*)(p + 1);
 7d8:	83 c0 08             	add    $0x8,%eax
}
 7db:	5b                   	pop    %ebx
 7dc:	5e                   	pop    %esi
 7dd:	5f                   	pop    %edi
 7de:	5d                   	pop    %ebp
 7df:	c3                   	ret    
    base.s.ptr = freep = prevp = &base;
 7e0:	c7 05 38 0b 00 00 3c 	movl   $0xb3c,0xb38
 7e7:	0b 00 00 
    base.s.size = 0;
 7ea:	bf 3c 0b 00 00       	mov    $0xb3c,%edi
    base.s.ptr = freep = prevp = &base;
 7ef:	c7 05 3c 0b 00 00 3c 	movl   $0xb3c,0xb3c
 7f6:	0b 00 00 
  for(p = prevp->s.ptr; ; prevp = p, p = p->s.ptr){
 7f9:	89 fa                	mov    %edi,%edx
    base.s.size = 0;
 7fb:	c7 05 40 0b 00 00 00 	movl   $0x0,0xb40
 802:	00 00 00 
    if(p->s.size >= nunits){
 805:	e9 42 ff ff ff       	jmp    74c <malloc+0x2c>
 80a:	8d b6 00 00 00 00    	lea    0x0(%esi),%esi
        prevp->s.ptr = p->s.ptr;
 810:	8b 08                	mov    (%eax),%ecx
 812:	89 0a                	mov    %ecx,(%edx)
 814:	eb b9                	jmp    7cf <malloc+0xaf>
